EXPORTS
	?AcquireDiskSpace@MsvEmailMtmUiUtils@@SAHAAVRFs@@HH@Z @ 1 NONAME ; int MsvEmailMtmUiUtils::AcquireDiskSpace(class RFs &, int, int)
	?CallNewMessagesL@MsvEmailMtmUiUtils@@SAXJ@Z @ 2 NONAME ; void MsvEmailMtmUiUtils::CallNewMessagesL(long)
	?CheckAvailableDiskSpaceForDownloadL@MsvEmailMtmUiUtils@@SAHHAAVCEikonEnv@@AAVCMsvSession@@@Z @ 3 NONAME ; int MsvEmailMtmUiUtils::CheckAvailableDiskSpaceForDownloadL(int, class CEikonEnv &, class CMsvSession &)
	?CreateConnectingToText@MsvEmailMtmUiUtils@@SAXAAVTDes16@@AAVCMsvSession@@J@Z @ 4 NONAME ; void MsvEmailMtmUiUtils::CreateConnectingToText(class TDes16 &, class CMsvSession &, long)
	?CreateEmailApiL@@YAPAVCImumInternalApi@@PAVCMsvSession@@@Z @ 5 NONAME ; class CImumInternalApi * CreateEmailApiL(class CMsvSession *)
	?CreateEmailApiLC@@YAPAVCImumInternalApi@@PAVCMsvSession@@@Z @ 6 NONAME ; class CImumInternalApi * CreateEmailApiLC(class CMsvSession *)
	?DisconnectMailboxL@MsvEmailMtmUiUtils@@SAHABVTMsvEntry@@AAVCMsvSession@@@Z @ 7 NONAME ; int MsvEmailMtmUiUtils::DisconnectMailboxL(class TMsvEntry const &, class CMsvSession &)
	?DoCEntryCopyMoveL@MsvEmailMtmUiUtils@@SAPAVCMsvOperation@@AAVCMsvEntry@@ABVCMsvEntrySelection@@JAAVTRequestStatus@@H@Z @ 8 NONAME ; class CMsvOperation * MsvEmailMtmUiUtils::DoCEntryCopyMoveL(class CMsvEntry &, class CMsvEntrySelection const &, long, class TRequestStatus &, int)
	?DoOfflineChecksL@MsvEmailMtmUiUtils@@SAHJ@Z @ 9 NONAME ; int MsvEmailMtmUiUtils::DoOfflineChecksL(long)
	?EditAccountL@CIMSSettingsUi@@SAXAAW4TImumUiExitCodes@@AAVCImumInSettingsData@@AAVCMsvSession@@@Z @ 10 NONAME ; void CIMSSettingsUi::EditAccountL(enum TImumUiExitCodes &, class CImumInSettingsData &, class CMsvSession &)
	?EmailFeaturesL@MsvEmailMtmUiFeatureUtils@@SAPAVCMuiuFlags@@HH@Z @ 11 NONAME ; class CMuiuFlags * MsvEmailMtmUiFeatureUtils::EmailFeaturesL(int, int)
	?EmailFeaturesLC@MsvEmailMtmUiFeatureUtils@@SAPAVCMuiuFlags@@HH@Z @ 12 NONAME ; class CMuiuFlags * MsvEmailMtmUiFeatureUtils::EmailFeaturesLC(int, int)
	?FetchGlobalEmailFeaturesL@MsvEmailMtmUiFeatureUtils@@SAXAAV?$RArray@I@@@Z @ 13 NONAME ; void MsvEmailMtmUiFeatureUtils::FetchGlobalEmailFeaturesL(class RArray<unsigned int> &)
	?FetchLocalEmailFeaturesL@MsvEmailMtmUiFeatureUtils@@SAXAAV?$RArray@UTMuiuLocalFeatureItem@@@@@Z @ 14 NONAME ; void MsvEmailMtmUiFeatureUtils::FetchLocalEmailFeaturesL(class RArray<struct TMuiuLocalFeatureItem> &)
	?LoadResourceFileL@MsvEmailMtmUiUtils@@SAXAAVRConeResourceLoader@@@Z @ 15 NONAME ; void MsvEmailMtmUiUtils::LoadResourceFileL(class RConeResourceLoader &)
	?LocalFeatureL@MsvEmailMtmUiFeatureUtils@@SAHABVTUid@@KK@Z @ 16 NONAME ; int MsvEmailMtmUiFeatureUtils::LocalFeatureL(class TUid const &, unsigned long, unsigned long)
	?NewAccountL@CIMSSettingsUi@@SAJAAW4TImumUiExitCodes@@AAVCImumInSettingsData@@AAVCMsvSession@@@Z @ 17 NONAME ; long CIMSSettingsUi::NewAccountL(enum TImumUiExitCodes &, class CImumInSettingsData &, class CMsvSession &)
	?RemoveOfflineDeleteL@MsvEmailMtmUiUtils@@SAHAAVCBaseMtm@@HJ@Z @ 18 NONAME ; int MsvEmailMtmUiUtils::RemoveOfflineDeleteL(class CBaseMtm &, int, long)
	?SendAOCommandL@MsvEmailMtmUiUtils@@SAXW4TAlwaysOnlineServerAPICommands@@J@Z @ 19 NONAME ; void MsvEmailMtmUiUtils::SendAOCommandL(enum TAlwaysOnlineServerAPICommands, long)
	?SetMessageInfoDataLCC@MsvEmailMtmUiUtils@@SAHAAUTMsgInfoMessageInfoData@@AAVCBaseMtm@@AAVCCoeEnv@@AAVTDes16@@333@Z @ 20 NONAME ; int MsvEmailMtmUiUtils::SetMessageInfoDataLCC(struct TMsgInfoMessageInfoData &, class CBaseMtm &, class CCoeEnv &, class TDes16 &, class TDes16 &, class TDes16 &, class TDes16 &)
	?SetMessageInfoDataLCCCCC@MsvEmailMtmUiUtils@@SAXAAUTMsgInfoMessageInfoData@@AAVCBaseMtm@@AAVCCoeEnv@@AAVTDes16@@333@Z @ 21 NONAME ; void MsvEmailMtmUiUtils::SetMessageInfoDataLCCCCC(struct TMsgInfoMessageInfoData &, class CBaseMtm &, class CCoeEnv &, class TDes16 &, class TDes16 &, class TDes16 &, class TDes16 &)
	?ShowNoteL@CIMSSettingsNoteUi@@SAXABVTDesC16@@ABW4TIMSNotes@@H@Z @ 22 NONAME ; void CIMSSettingsNoteUi::ShowNoteL(class TDesC16 const &, enum TIMSNotes const &, int)
	?ShowNoteL@CIMSSettingsNoteUi@@SAXIABW4TIMSNotes@@H@Z @ 23 NONAME ; void CIMSSettingsNoteUi::ShowNoteL(unsigned int, enum TIMSNotes const &, int)
	?ShowQueryL@CIMSSettingsNoteUi@@SAHABVTDesC16@@HABHW4TTone@CAknQueryDialog@@@Z @ 24 NONAME ; int CIMSSettingsNoteUi::ShowQueryL(class TDesC16 const &, int, int const &, enum CAknQueryDialog::TTone)
	?ShowQueryL@CIMSSettingsNoteUi@@SAHIHABHW4TTone@CAknQueryDialog@@@Z @ 25 NONAME ; int CIMSSettingsNoteUi::ShowQueryL(unsigned int, int, int const &, enum CAknQueryDialog::TTone)
	?StripCompleteEntriesLC@MsvEmailMtmUiUtils@@SAPAVCMsvEntrySelection@@ABVCMsvEntry@@ABV2@@Z @ 26 NONAME ; class CMsvEntrySelection * MsvEmailMtmUiUtils::StripCompleteEntriesLC(class CMsvEntry const &, class CMsvEntrySelection const &)
	?StripDeletedEntriesLC@MsvEmailMtmUiUtils@@SAPAVCMsvEntrySelection@@ABVCMsvEntry@@ABV2@@Z @ 27 NONAME ; class CMsvEntrySelection * MsvEmailMtmUiUtils::StripDeletedEntriesLC(class CMsvEntry const &, class CMsvEntrySelection const &)
	?ShowNoteL@CIMSSettingsNoteUi@@SAXIW4TIMSNotes@@HH@Z @ 28 NONAME ; void CIMSSettingsNoteUi::ShowNoteL(unsigned int, enum TIMSNotes, int, int)
	?NewL@CImumMBoxServiceDeletion@@SAPAV1@AAVCMsvSession@@AAVTRequestStatus@@AAVMMsvProgressReporter@@J@Z @ 29 NONAME ; class CImumMBoxServiceDeletion * CImumMBoxServiceDeletion::NewL(class CMsvSession &, class TRequestStatus &, class MMsvProgressReporter &, long)
	?NewAccountL@CIMSSettingsUi@@SAJAAW4TImumUiExitCodes@@AAVCImumInSettingsData@@AAVCMsvSession@@H@Z @ 30 NONAME ; long CIMSSettingsUi::NewAccountL(enum TImumUiExitCodes &, class CImumInSettingsData &, class CMsvSession &, int)

