EXPORTS
	?trUtf8@TConversationEngine@@SA?AVQString@@PBD0H@Z @ 1 NONAME ; class QString TConversationEngine::trUtf8(char const *, char const *, int)
	?tr@TConversationEngine@@SA?AVQString@@PBD0H@Z @ 2 NONAME ; class QString TConversationEngine::tr(char const *, char const *, int)
	?fetchMoreConversations@ConversationsEngine@@QAEXXZ @ 3 NONAME ; void ConversationsEngine::fetchMoreConversations(void)
	?NotifyNewConversationClientAndUpdateCLV@TConversationEngine@@AAEXXZ @ 4 NONAME ; void TConversationEngine::NotifyNewConversationClientAndUpdateCLV(void)
	?FetchMoreConversations@TConversationEngine@@AAEXXZ @ 5 NONAME ; void TConversationEngine::FetchMoreConversations(void)
	?tr@TConversationEngine@@SA?AVQString@@PBD0@Z @ 6 NONAME ; class QString TConversationEngine::tr(char const *, char const *)
	?FetchConversationsAndUpdateCV@TConversationEngine@@AAEXXZ @ 7 NONAME ; void TConversationEngine::FetchConversationsAndUpdateCV(void)
	?deleteConversations@ConversationsEngine@@QAE_N_J@Z @ 8 NONAME ; bool ConversationsEngine::deleteConversations(long long)
	?staticMetaObject@TConversationEngine@@2UQMetaObject@@B @ 9 NONAME ; struct QMetaObject const TConversationEngine::staticMetaObject
	?DeleteConversationL@CCSRequestHandler@@QAEXH@Z @ 10 NONAME ; void CCSRequestHandler::DeleteConversationL(int)
	?trUtf8@ConversationsEngine@@SA?AVQString@@PBD0@Z @ 11 NONAME ; class QString ConversationsEngine::trUtf8(char const *, char const *)
	?emitConversationListModelPopulated@ConversationsEngine@@QAEXXZ @ 12 NONAME ; void ConversationsEngine::emitConversationListModelPopulated(void)
	?GetConversationsFromServer@TConversationEngine@@AAEXXZ @ 13 NONAME ; void TConversationEngine::GetConversationsFromServer(void)
	?trUtf8@ConversationsEngine@@SA?AVQString@@PBD0H@Z @ 14 NONAME ; class QString ConversationsEngine::trUtf8(char const *, char const *, int)
	?tr@ConversationsEngine@@SA?AVQString@@PBD0H@Z @ 15 NONAME ; class QString ConversationsEngine::tr(char const *, char const *, int)
	?qt_metacast@TConversationEngine@@UAEPAXPBD@Z @ 16 NONAME ; void * TConversationEngine::qt_metacast(char const *)
	?GetMessagingHistoryL@CCSRequestHandler@@QAEXH@Z @ 17 NONAME ; void CCSRequestHandler::GetMessagingHistoryL(int)
	?downloadOperationSupported@ConversationsEngine@@QAE_NH@Z @ 18 NONAME ; bool ConversationsEngine::downloadOperationSupported(int)
	?RemoveConversationListChangeEventL@CCSRequestHandler@@QAEXPAVMCsConversationListChangeObserver@@@Z @ 19 NONAME ; void CCSRequestHandler::RemoveConversationListChangeEventL(class MCsConversationListChangeObserver *)
	?GetConversationIdL@CCSRequestHandler@@QAEHH@Z @ 20 NONAME ; int CCSRequestHandler::GetConversationIdL(int)
	?getConversationsModel@ConversationsEngine@@QAEPAVQStandardItemModel@@XZ @ 21 NONAME ; class QStandardItemModel * ConversationsEngine::getConversationsModel(void)
	?getStaticMetaObject@TConversationEngine@@SAABUQMetaObject@@XZ @ 22 NONAME ; struct QMetaObject const & TConversationEngine::getStaticMetaObject(void)
	?markConversationRead@ConversationsEngine@@QAE_N_J@Z @ 23 NONAME ; bool ConversationsEngine::markConversationRead(long long)
	?getCurrentConversationId@ConversationsEngine@@QAE_JXZ @ 24 NONAME ; long long ConversationsEngine::getCurrentConversationId(void)
	?ClearConversations@TConversationEngine@@AAEXXZ @ 25 NONAME ; void TConversationEngine::ClearConversations(void)
	?GetConversationIDFromContatcID@TConversationEngine@@AAEXXZ @ 26 NONAME ; void TConversationEngine::GetConversationIDFromContatcID(void)
	?CheckCurrentConversationID@TConversationEngine@@AAEXXZ @ 27 NONAME ; void TConversationEngine::CheckCurrentConversationID(void)
	?getConversationsSummaryModel@ConversationsEngine@@QAEPAVQStandardItemModel@@XZ @ 28 NONAME ; class QStandardItemModel * ConversationsEngine::getConversationsSummaryModel(void)
	?RequestConversationListChangeEventL@CCSRequestHandler@@QAEXPAVMCsConversationListChangeObserver@@@Z @ 29 NONAME ; void CCSRequestHandler::RequestConversationListChangeEventL(class MCsConversationListChangeObserver *)
	?conversationListModelPopulated@ConversationsEngine@@IAEXXZ @ 30 NONAME ; void ConversationsEngine::conversationListModelPopulated(void)
	?ShutdownServerL@CCSRequestHandler@@QAEXXZ @ 31 NONAME ; void CCSRequestHandler::ShutdownServerL(void)
	?GetTotalUnreadCountL@CCSRequestHandler@@QAEKXZ @ 32 NONAME ; unsigned long CCSRequestHandler::GetTotalUnreadCountL(void)
	??0ConversationsEngine@@AAE@PAVQObject@@@Z @ 33 NONAME ; ConversationsEngine::ConversationsEngine(class QObject *)
	?getContactDetails@ConversationsEngine@@QAEX_JAAVQString@@1@Z @ 34 NONAME ; void ConversationsEngine::getContactDetails(long long, class QString &, class QString &)
	?RemoveCachingStatusEventL@CCSRequestHandler@@QAEXPAVMCsCachingStatusObserver@@@Z @ 35 NONAME ; void CCSRequestHandler::RemoveCachingStatusEventL(class MCsCachingStatusObserver *)
	?tr@ConversationsEngine@@SA?AVQString@@PBD0@Z @ 36 NONAME ; class QString ConversationsEngine::tr(char const *, char const *)
	?GetConversationListL@CCSRequestHandler@@QAEXXZ @ 37 NONAME ; void CCSRequestHandler::GetConversationListL(void)
	?getConversations@ConversationsEngine@@QAE_N_J@Z @ 38 NONAME ; bool ConversationsEngine::getConversations(long long)
	?metaObject@TConversationEngine@@UBEPBUQMetaObject@@XZ @ 39 NONAME ; struct QMetaObject const * TConversationEngine::metaObject(void) const
	?GetCachingStatusL@CCSRequestHandler@@QAEEXZ @ 40 NONAME ; unsigned char CCSRequestHandler::GetCachingStatusL(void)
	?RequestCachingStatusEventL@CCSRequestHandler@@QAEXPAVMCsCachingStatusObserver@@@Z @ 41 NONAME ; void CCSRequestHandler::RequestCachingStatusEventL(class MCsCachingStatusObserver *)
	?initTestCase@TConversationEngine@@AAEXXZ @ 42 NONAME ; void TConversationEngine::initTestCase(void)
	?GetConversationIDFromAddress@TConversationEngine@@AAEXXZ @ 43 NONAME ; void TConversationEngine::GetConversationIDFromAddress(void)
	?ClearMessagingHistoryL@CCSRequestHandler@@QAEXH@Z @ 44 NONAME ; void CCSRequestHandler::ClearMessagingHistoryL(int)
	?GetConversationsL@CCSRequestHandler@@QAEXPAVCCsClientConversation@@@Z @ 45 NONAME ; void CCSRequestHandler::GetConversationsL(class CCsClientConversation *)
	?NotifyModifyConversationClientAndUpdateCLV@TConversationEngine@@AAEXXZ @ 46 NONAME ; void TConversationEngine::NotifyModifyConversationClientAndUpdateCLV(void)
	?emitConversationModelPopulated@ConversationsEngine@@QAEXXZ @ 47 NONAME ; void ConversationsEngine::emitConversationModelPopulated(void)
	?qt_metacall@ConversationsEngine@@UAEHW4Call@QMetaObject@@HPAPAX@Z @ 48 NONAME ; int ConversationsEngine::qt_metacall(enum QMetaObject::Call, int, void * *)
	?NotifyNewConversationEntryAndUpdateCV@TConversationEngine@@AAEXXZ @ 49 NONAME ; void TConversationEngine::NotifyNewConversationEntryAndUpdateCV(void)
	?deleteAllDraftMessages@ConversationsEngine@@QAEXXZ @ 50 NONAME ; void ConversationsEngine::deleteAllDraftMessages(void)
	?getConversationIdFromAddress@ConversationsEngine@@QAE_JVQString@@@Z @ 51 NONAME ; long long ConversationsEngine::getConversationIdFromAddress(class QString)
	?metaObject@ConversationsEngine@@UBEPBUQMetaObject@@XZ @ 52 NONAME ; struct QMetaObject const * ConversationsEngine::metaObject(void) const
	??1ConversationsEngine@@UAE@XZ @ 53 NONAME ; ConversationsEngine::~ConversationsEngine(void)
	?GetConversationIdFromAddressL@CCSRequestHandler@@QAEHAAVTDesC16@@@Z @ 54 NONAME ; int CCSRequestHandler::GetConversationIdFromAddressL(class TDesC16 &)
	?markAsReadAndGetType@ConversationsEngine@@QAEXHAAH0@Z @ 55 NONAME ; void ConversationsEngine::markAsReadAndGetType(int, int &, int &)
	?qt_metacast@ConversationsEngine@@UAEPAXPBD@Z @ 56 NONAME ; void * ConversationsEngine::qt_metacast(char const *)
	?getDraftsModel@ConversationsEngine@@QAEPAVQStandardItemModel@@XZ @ 57 NONAME ; class QStandardItemModel * ConversationsEngine::getDraftsModel(void)
	?MarkMessagingHistoryReadL@CCSRequestHandler@@QAEXH@Z @ 58 NONAME ; void CCSRequestHandler::MarkMessagingHistoryReadL(int)
	?conversationModelUpdated@ConversationsEngine@@IAEXXZ @ 59 NONAME ; void ConversationsEngine::conversationModelUpdated(void)
	?NewLC@CCSRequestHandler@@SAPAV1@XZ @ 60 NONAME ; class CCSRequestHandler * CCSRequestHandler::NewLC(void)
	?getStaticMetaObject@ConversationsEngine@@SAABUQMetaObject@@XZ @ 61 NONAME ; struct QMetaObject const & ConversationsEngine::getStaticMetaObject(void)
	?DeleteConversationAndUpdateCV@TConversationEngine@@AAEXXZ @ 62 NONAME ; void TConversationEngine::DeleteConversationAndUpdateCV(void)
	?markMessagesRead@ConversationsEngine@@QAE_NAAV?$QList@H@@@Z @ 63 NONAME ; bool ConversationsEngine::markMessagesRead(class QList<int> &)
	?cleanupTestCase@TConversationEngine@@AAEXXZ @ 64 NONAME ; void TConversationEngine::cleanupTestCase(void)
	?conversationModelPopulated@ConversationsEngine@@IAEXXZ @ 65 NONAME ; void ConversationsEngine::conversationModelPopulated(void)
	?downloadMessage@ConversationsEngine@@QAEHH@Z @ 66 NONAME ; int ConversationsEngine::downloadMessage(int)
	?MarkConversationReadL@CCSRequestHandler@@QAEXH@Z @ 67 NONAME ; void CCSRequestHandler::MarkConversationReadL(int)
	?trUtf8@TConversationEngine@@SA?AVQString@@PBD0@Z @ 68 NONAME ; class QString TConversationEngine::trUtf8(char const *, char const *)
	?qt_metacall@TConversationEngine@@UAEHW4Call@QMetaObject@@HPAPAX@Z @ 69 NONAME ; int TConversationEngine::qt_metacall(enum QMetaObject::Call, int, void * *)
	?GetDraftsModelFromConversationEngine@TConversationEngine@@AAEXXZ @ 70 NONAME ; void TConversationEngine::GetDraftsModelFromConversationEngine(void)
	?MarkConversationReadAndUpdateCV@TConversationEngine@@AAEXXZ @ 71 NONAME ; void TConversationEngine::MarkConversationReadAndUpdateCV(void)
	?init@TConversationEngine@@AAEXXZ @ 72 NONAME ; void TConversationEngine::init(void)
	?RemoveConversationChangeEventL@CCSRequestHandler@@QAEXPAVMCsConversationChangeObserver@@PAVCCsClientConversation@@@Z @ 73 NONAME ; void CCSRequestHandler::RemoveConversationChangeEventL(class MCsConversationChangeObserver *, class CCsClientConversation *)
	?cleanup@TConversationEngine@@AAEXXZ @ 74 NONAME ; void TConversationEngine::cleanup(void)
	??_EConversationsEngine@@UAE@I@Z @ 75 NONAME ; ConversationsEngine::~ConversationsEngine(unsigned int)
	?GetContactDetailsFromConversationID@TConversationEngine@@AAEXXZ @ 76 NONAME ; void TConversationEngine::GetContactDetailsFromConversationID(void)
	?RemoveResultsEventL@CCSRequestHandler@@QAEXPAVMCsResultsObserver@@@Z @ 77 NONAME ; void CCSRequestHandler::RemoveResultsEventL(class MCsResultsObserver *)
	?NotifyDeleteConversationClientAndUpdateCLV@TConversationEngine@@AAEXXZ @ 78 NONAME ; void TConversationEngine::NotifyDeleteConversationClientAndUpdateCLV(void)
	?instance@ConversationsEngine@@SAPAV1@XZ @ 79 NONAME ; class ConversationsEngine * ConversationsEngine::instance(void)
	?GetConversationUnreadListL@CCSRequestHandler@@QAEXPAV?$RPointerArray@VCCsClientConversation@@@@@Z @ 80 NONAME ; void CCSRequestHandler::GetConversationUnreadListL(class RPointerArray<class CCsClientConversation> *)
	?RequestResultsEventL@CCSRequestHandler@@QAEXPAVMCsResultsObserver@@@Z @ 81 NONAME ; void CCSRequestHandler::RequestResultsEventL(class MCsResultsObserver *)
	?resendMessage@ConversationsEngine@@QAE_NH@Z @ 82 NONAME ; bool ConversationsEngine::resendMessage(int)
	?emitConversationModelUpdated@ConversationsEngine@@QAEXXZ @ 83 NONAME ; void ConversationsEngine::emitConversationModelUpdated(void)
	?clearConversations@ConversationsEngine@@QAE_NXZ @ 84 NONAME ; bool ConversationsEngine::clearConversations(void)
	?Version@CCSRequestHandler@@QBE?AVTVersion@@XZ @ 85 NONAME ; class TVersion CCSRequestHandler::Version(void) const
	?NotifyConversationClientListAndUpdateCLV@TConversationEngine@@AAEXXZ @ 86 NONAME ; void TConversationEngine::NotifyConversationClientListAndUpdateCLV(void)
	?RequestConversationChangeEventL@CCSRequestHandler@@QAEXPAVMCsConversationChangeObserver@@PAVCCsClientConversation@@@Z @ 87 NONAME ; void CCSRequestHandler::RequestConversationChangeEventL(class MCsConversationChangeObserver *, class CCsClientConversation *)
	?getConversationIdFromContactId@ConversationsEngine@@QAE_JH@Z @ 88 NONAME ; long long ConversationsEngine::getConversationIdFromContactId(int)
	?staticMetaObject@ConversationsEngine@@2UQMetaObject@@B @ 89 NONAME ; struct QMetaObject const ConversationsEngine::staticMetaObject
	?deleteMessages@ConversationsEngine@@QAEXAAV?$QList@H@@@Z @ 90 NONAME ; void ConversationsEngine::deleteMessages(class QList<int> &)
	?NewL@CCSRequestHandler@@SAPAV1@XZ @ 91 NONAME ; class CCSRequestHandler * CCSRequestHandler::NewL(void)

