EXPORTS
	_Z15CreateEmailApiLP11CMsvSession @ 1 NONAME
	_Z16CreateEmailApiLCP11CMsvSession @ 2 NONAME
	_ZN14CIMSSettingsUi11NewAccountLER16TImumUiExitCodesR19CImumInSettingsDataR11CMsvSession @ 3 NONAME
	_ZN14CIMSSettingsUi12EditAccountLER16TImumUiExitCodesR19CImumInSettingsDataR11CMsvSession @ 4 NONAME
	_ZN18CIMSSettingsNoteUi10ShowQueryLERK7TDesC16iRKiN15CAknQueryDialog5TToneE @ 5 NONAME
	_ZN18CIMSSettingsNoteUi10ShowQueryLEjiRKiN15CAknQueryDialog5TToneE @ 6 NONAME
	_ZN18CIMSSettingsNoteUi9ShowNoteLERK7TDesC16RK9TIMSNotesi @ 7 NONAME
	_ZN18CIMSSettingsNoteUi9ShowNoteLEj9TIMSNotesii @ 8 NONAME
	_ZN18CIMSSettingsNoteUi9ShowNoteLEjRK9TIMSNotesi @ 9 NONAME
	_ZN18MsvEmailMtmUiUtils14SendAOCommandLE30TAlwaysOnlineServerAPICommandsl @ 10 NONAME
	_ZN18MsvEmailMtmUiUtils16AcquireDiskSpaceER3RFsii @ 11 NONAME
	_ZN18MsvEmailMtmUiUtils16CallNewMessagesLEl @ 12 NONAME
	_ZN18MsvEmailMtmUiUtils16DoOfflineChecksLEl @ 13 NONAME
	_ZN18MsvEmailMtmUiUtils17DoCEntryCopyMoveLER9CMsvEntryRK18CMsvEntrySelectionlR14TRequestStatusi @ 14 NONAME
	_ZN18MsvEmailMtmUiUtils17LoadResourceFileLER19RConeResourceLoader @ 15 NONAME
	_ZN18MsvEmailMtmUiUtils18DisconnectMailboxLERK9TMsvEntryR11CMsvSession @ 16 NONAME
	_ZN18MsvEmailMtmUiUtils20RemoveOfflineDeleteLER8CBaseMtmil @ 17 NONAME
	_ZN18MsvEmailMtmUiUtils21SetMessageInfoDataLCCER23TMsgInfoMessageInfoDataR8CBaseMtmR7CCoeEnvR6TDes16S7_S7_S7_ @ 18 NONAME
	_ZN18MsvEmailMtmUiUtils21StripDeletedEntriesLCERK9CMsvEntryRK18CMsvEntrySelection @ 19 NONAME
	_ZN18MsvEmailMtmUiUtils22CreateConnectingToTextER6TDes16R11CMsvSessionl @ 20 NONAME
	_ZN18MsvEmailMtmUiUtils22StripCompleteEntriesLCERK9CMsvEntryRK18CMsvEntrySelection @ 21 NONAME
	_ZN18MsvEmailMtmUiUtils24SetMessageInfoDataLCCCCCER23TMsgInfoMessageInfoDataR8CBaseMtmR7CCoeEnvR6TDes16S7_S7_S7_ @ 22 NONAME
	_ZN18MsvEmailMtmUiUtils35CheckAvailableDiskSpaceForDownloadLEiR9CEikonEnvR11CMsvSession @ 23 NONAME
	_ZN24CImumMBoxServiceDeletion4NewLER11CMsvSessionR14TRequestStatusR20MMsvProgressReporterl @ 24 NONAME
	_ZN25MsvEmailMtmUiFeatureUtils13LocalFeatureLERK4TUidmm @ 25 NONAME
	_ZN25MsvEmailMtmUiFeatureUtils14EmailFeaturesLEii @ 26 NONAME
	_ZN25MsvEmailMtmUiFeatureUtils15EmailFeaturesLCEii @ 27 NONAME
	_ZN25MsvEmailMtmUiFeatureUtils24FetchLocalEmailFeaturesLER6RArrayI21TMuiuLocalFeatureItemE @ 28 NONAME
	_ZN25MsvEmailMtmUiFeatureUtils25FetchGlobalEmailFeaturesLER6RArrayIjE @ 29 NONAME
	_ZTI13CImumMboxData @ 30 NONAME ; #<TI>#
	_ZTI14CIMSSettingsUi @ 31 NONAME ; #<TI>#
	_ZTI16CImumMboxManager @ 32 NONAME ; #<TI>#
	_ZTI16CMuiuSettingBase @ 33 NONAME ; #<TI>#
	_ZTI17CMuiuSettingsLink @ 34 NONAME ; #<TI>#
	_ZTI18CIMASCenRepControl @ 35 NONAME ; #<TI>#
	_ZTI18CIMSSettingsBaseUI @ 36 NONAME ; #<TI>#
	_ZTI18CIMSSettingsDialog @ 37 NONAME ; #<TI>#
	_ZTI18CIMSSettingsWizard @ 38 NONAME ; #<TI>#
	_ZTI18CMsvImailSignature @ 39 NONAME ; #<TI>#
	_ZTI19CMsvCommDbUtilities @ 40 NONAME ; #<TI>#
	_ZTI20CImapFolderListArray @ 41 NONAME ; #<TI>#
	_ZTI20CImumInternalApiImpl @ 42 NONAME ; #<TI>#
	_ZTI21CImumMboxSettingsCtrl @ 43 NONAME ; #<TI>#
	_ZTI21CMuiuSettingsEditText @ 44 NONAME ; #<TI>#
	_ZTI22CImumMboxDataExtension @ 45 NONAME ; #<TI>#
	_ZTI22CMuiuSettingsEditValue @ 46 NONAME ; #<TI>#
	_ZTI23CImapSubscriptionDialog @ 47 NONAME ; #<TI>#
	_ZTI23CImumInSettingsDataImpl @ 48 NONAME ; #<TI>#
	_ZTI24CIMSSettingsItemApprover @ 49 NONAME ; #<TI>#
	_ZTI24CImumInSettingsDataArray @ 50 NONAME ; #<TI>#
	_ZTI25CImumInHealthServicesImpl @ 51 NONAME ; #<TI>#
	_ZTI25CMuiuDynamicSettingsArray @ 52 NONAME ; #<TI>#
	_ZTI25CMuiuSettingsLinkExtended @ 53 NONAME ; #<TI>#
	_ZTI26CImumInMailboxServicesImpl @ 54 NONAME ; #<TI>#
	_ZTI26CMuiuDynamicSettingsDialog @ 55 NONAME ; #<TI>#
	_ZTI27CIMSSettingsAccessPointItem @ 56 NONAME ; #<TI>#
	_ZTI27CImumInMailboxUtilitiesImpl @ 57 NONAME ; #<TI>#
	_ZTI28CImumInSettingsDataValidator @ 58 NONAME ; #<TI>#
	_ZTI30CIMSSettingsWizardEditTextPage @ 59 NONAME ; #<TI>#
	_ZTI30CMuiuDynamicSettingsItemFinder @ 60 NONAME ; #<TI>#
	_ZTI33CIMSSettingsWizardRadioButtonPage @ 61 NONAME ; #<TI>#
	_ZTI33CImumInSettingsDataCollectionImpl @ 62 NONAME ; #<TI>#
	_ZTV13CImumMboxData @ 63 NONAME ; #<VT>#
	_ZTV14CIMSSettingsUi @ 64 NONAME ; #<VT>#
	_ZTV16CImumMboxManager @ 65 NONAME ; #<VT>#
	_ZTV16CMuiuSettingBase @ 66 NONAME ; #<VT>#
	_ZTV17CMuiuSettingsLink @ 67 NONAME ; #<VT>#
	_ZTV18CIMASCenRepControl @ 68 NONAME ; #<VT>#
	_ZTV18CIMSSettingsBaseUI @ 69 NONAME ; #<VT>#
	_ZTV18CIMSSettingsDialog @ 70 NONAME ; #<VT>#
	_ZTV18CIMSSettingsWizard @ 71 NONAME ; #<VT>#
	_ZTV18CMsvImailSignature @ 72 NONAME ; #<VT>#
	_ZTV19CMsvCommDbUtilities @ 73 NONAME ; #<VT>#
	_ZTV20CImapFolderListArray @ 74 NONAME ; #<VT>#
	_ZTV20CImumInternalApiImpl @ 75 NONAME ; #<VT>#
	_ZTV21CImumMboxSettingsCtrl @ 76 NONAME ; #<VT>#
	_ZTV21CMuiuSettingsEditText @ 77 NONAME ; #<VT>#
	_ZTV22CImumMboxDataExtension @ 78 NONAME ; #<VT>#
	_ZTV22CMuiuSettingsEditValue @ 79 NONAME ; #<VT>#
	_ZTV23CImapSubscriptionDialog @ 80 NONAME ; #<VT>#
	_ZTV23CImumInSettingsDataImpl @ 81 NONAME ; #<VT>#
	_ZTV24CIMSSettingsItemApprover @ 82 NONAME ; #<VT>#
	_ZTV24CImumInSettingsDataArray @ 83 NONAME ; #<VT>#
	_ZTV25CImumInHealthServicesImpl @ 84 NONAME ; #<VT>#
	_ZTV25CMuiuDynamicSettingsArray @ 85 NONAME ; #<VT>#
	_ZTV25CMuiuSettingsLinkExtended @ 86 NONAME ; #<VT>#
	_ZTV26CImumInMailboxServicesImpl @ 87 NONAME ; #<VT>#
	_ZTV26CMuiuDynamicSettingsDialog @ 88 NONAME ; #<VT>#
	_ZTV27CIMSSettingsAccessPointItem @ 89 NONAME ; #<VT>#
	_ZTV27CImumInMailboxUtilitiesImpl @ 90 NONAME ; #<VT>#
	_ZTV28CImumInSettingsDataValidator @ 91 NONAME ; #<VT>#
	_ZTV30CIMSSettingsWizardEditTextPage @ 92 NONAME ; #<VT>#
	_ZTV30CMuiuDynamicSettingsItemFinder @ 93 NONAME ; #<VT>#
	_ZTV33CIMSSettingsWizardRadioButtonPage @ 94 NONAME ; #<VT>#
	_ZTV33CImumInSettingsDataCollectionImpl @ 95 NONAME ; #<VT>#
	_ZN14CIMSSettingsUi11NewAccountLER16TImumUiExitCodesR19CImumInSettingsDataR11CMsvSessioni @ 96 NONAME

