EXPORTS
	_ZN14CMsgSvgControl18LoadIndicatorIconLERK11TAknsItemIDRK7TDesC16ii @ 1 NONAME
	_ZN14CMsgSvgControl4NewLER14CMsgEditorViewP24MMsgAsyncControlObserver @ 2 NONAME
	_ZN16CMsgAudioControl4NewLER14CMsgEditorViewP24MMsgAsyncControlObserver12TMdaPriority22TMdaPriorityPreference @ 3 NONAME
	_ZN16CMsgImageControl18SetImageFileClosedEv @ 4 NONAME
	_ZN16CMsgImageControl21SetAnimationLoopCountEi @ 5 NONAME
	_ZN16CMsgImageControl4NewLER14CMsgEditorViewP24MMsgAsyncControlObserver @ 6 NONAME
	_ZN16CMsgImageControl9FrameSizeEv @ 7 NONAME
	_ZN16CMsgMediaControl12SetIconSizeLERK5TSize @ 8 NONAME
	_ZN16CMsgMediaControl14SetIconVisibleEi @ 9 NONAME
	_ZN16CMsgMediaControl9LoadIconLERK7TDesC16RK11TAknsItemIDii @ 10 NONAME
	_ZN16CMsgVideoControl10SetVolumeLEi @ 11 NONAME
	_ZN16CMsgVideoControl4NewLER14CMsgEditorViewP24MMsgAsyncControlObserver12TMdaPriority22TMdaPriorityPreferencei @ 12 NONAME
	_ZNK16CMsgImageControl11IsAnimationEv @ 13 NONAME
	_ZNK16CMsgMediaControl12IconBitmapIdEv @ 14 NONAME
	_ZNK16CMsgVideoControl11IsOffScreenEv @ 15 NONAME
	_ZNK16CMsgVideoControl16VideoResolutionLEv @ 16 NONAME
	_ZNK16CMsgVideoControl9HasAudioLEv @ 17 NONAME
	_ZTI14CMsgSvgControl @ 18 NONAME ; #<TI>#
	_ZTI16CMsgAudioControl @ 19 NONAME ; #<TI>#
	_ZTI16CMsgImageControl @ 20 NONAME ; #<TI>#
	_ZTI16CMsgMediaControl @ 21 NONAME ; #<TI>#
	_ZTI16CMsgVideoControl @ 22 NONAME ; #<TI>#
	_ZTV14CMsgSvgControl @ 23 NONAME ; #<VT>#
	_ZTV16CMsgAudioControl @ 24 NONAME ; #<VT>#
	_ZTV16CMsgImageControl @ 25 NONAME ; #<VT>#
	_ZTV16CMsgMediaControl @ 26 NONAME ; #<VT>#
	_ZTV16CMsgVideoControl @ 27 NONAME ; #<VT>#
	_ZN16CMsgMediaControl13SetAnimationLEP19CAknBitmapAnimation @ 28 NONAME
	_ZN16CMsgMediaControl17SetAnimationSizeLERK5TSize @ 29 NONAME
	_ZN16CMsgMediaControl20SetAnimationVisibleLEi @ 30 NONAME
	_ZN16CMsgMediaControl16ReleaseAnimationEv @ 31 NONAME

