EXPORTS
	_ZN14CMsgEditorView11AddControlLEP15CMsgBaseControlii17TMsgFormComponent @ 1 NONAME
	_ZN14CMsgEditorView11ReadIniFileERK7TDesC16S2_R7TPtrC16 @ 2 NONAME ABSENT
	_ZN14CMsgEditorView11ReadIniFileERK7TDesC16S2_Ri @ 3 NONAME ABSENT
	_ZN14CMsgEditorView13AknItemFinderEv @ 4 NONAME ABSENT
	_ZN14CMsgEditorView13ResetControlsE17TMsgFormComponent @ 5 NONAME
	_ZN14CMsgEditorView13ResetControlsEv @ 6 NONAME
	_ZN14CMsgEditorView14OfferKeyEventLERK9TKeyEvent10TEventCode @ 7 NONAME
	_ZN14CMsgEditorView14RemoveControlLEi @ 8 NONAME
	_ZN14CMsgEditorView15MopSupplyObjectE8TTypeUid @ 9 NONAME
	_ZN14CMsgEditorView19SetControlsModifiedEi @ 10 NONAME
	_ZN14CMsgEditorView23AddControlFromResourceLEiii17TMsgFormComponent @ 11 NONAME
	_ZN14CMsgEditorView23HandleScreenSizeChangeLERK5TRect @ 12 NONAME
	_ZN14CMsgEditorView4NewLER18MMsgEditorObserverm @ 13 NONAME
	_ZN14CMsgEditorView7MopNextEv @ 14 NONAME
	_ZN14CMsgEditorView8ExecuteLERK5TRecti @ 15 NONAME
	_ZN14CMsgEditorView8SetFocusEi @ 16 NONAME
	_ZN14CMsgEditorViewD0Ev @ 17 NONAME
	_ZN14CMsgEditorViewD1Ev @ 18 NONAME
	_ZN14CMsgEditorViewD2Ev @ 19 NONAME
	_ZN15CMsgBaseControl10SetMarginsERK8TMargins @ 20 NONAME
	_ZN15CMsgBaseControl11SetModifiedEi @ 21 NONAME
	_ZN15CMsgBaseControl11SetReadOnlyEi @ 22 NONAME
	_ZN15CMsgBaseControl11SizeChangedEv @ 23 NONAME
	_ZN15CMsgBaseControl12FocusChangedE8TDrawNow @ 24 NONAME
	_ZN15CMsgBaseControl12SetControlIdEi @ 25 NONAME
	_ZN15CMsgBaseControl13AutomaticFindEv @ 26 NONAME ABSENT
	_ZN15CMsgBaseControl13VirtualHeightEv @ 27 NONAME
	_ZN15CMsgBaseControl14BaseConstructLEv @ 28 NONAME
	_ZN15CMsgBaseControl15NotifyViewEventE13TMsgViewEventi @ 29 NONAME
	_ZN15CMsgBaseControl17VirtualVisibleTopEv @ 30 NONAME
	_ZN15CMsgBaseControl22ConstructFromResourceLEi @ 31 NONAME
	_ZN15CMsgBaseControl22SetBaseControlObserverER23MMsgBaseControlObserver @ 32 NONAME
	_ZN15CMsgBaseControl29SetDistanceFromComponentAboveEi @ 33 NONAME
	_ZN15CMsgBaseControl35SetupAutomaticFindAfterFocusChangeLEi @ 34 NONAME
	_ZN15CMsgBaseControl5ResetEv @ 35 NONAME
	_ZN15CMsgBaseControlC2ER23MMsgBaseControlObserver @ 36 NONAME
	_ZN15CMsgBaseControlC2Ev @ 37 NONAME
	_ZN15CMsgBaseControlD0Ev @ 38 NONAME
	_ZN15CMsgBaseControlD1Ev @ 39 NONAME
	_ZN15CMsgBaseControlD2Ev @ 40 NONAME
	_ZN15CMsgBodyControl10ClipboardLE17TMsgClipboardFunc @ 41 NONAME ABSENT
	_ZN15CMsgBodyControl11InsertTextLERK7TDesC16 @ 42 NONAME
	_ZN15CMsgBodyControl14OfferKeyEventLERK9TKeyEvent10TEventCode @ 43 NONAME
	_ZN15CMsgBodyControl14SetAndGetSizeLER5TSize @ 44 NONAME
	_ZN15CMsgBodyControl15CurrentLineRectEv @ 45 NONAME ABSENT
	_ZN15CMsgBodyControl15SetTextContentLER9CRichText @ 46 NONAME
	_ZN15CMsgBodyControl16InsertCharacterLERK5TChar @ 47 NONAME
	_ZN15CMsgBodyControl16SetPlainTextModeEi @ 48 NONAME ABSENT
	_ZN15CMsgBodyControl17HandleEdwinEventLEP9CEikEdwinN17MEikEdwinObserver11TEdwinEventE @ 49 NONAME ABSENT
	_ZN15CMsgBodyControl19HandleControlEventLEP11CCoeControlN19MCoeControlObserver9TCoeEventE @ 50 NONAME ABSENT
	_ZN15CMsgBodyControl20CopyDocumentContentLER11CGlobalTextS1_ @ 51 NONAME ABSENT
	_ZN15CMsgBodyControl21HandleEdwinSizeEventLEP9CEikEdwinN21MEikEdwinSizeObserver15TEdwinSizeEventE5TSize @ 52 NONAME ABSENT
	_ZN15CMsgBodyControl4NewLEP11CCoeControl @ 53 NONAME
	_ZN15CMsgBodyControl5EditLE12TMsgEditFunc @ 54 NONAME ABSENT
	_ZN15CMsgBodyControl5ResetEv @ 55 NONAME
	_ZN17CMsgRecipientItem10IsVerifiedEv @ 56 NONAME
	_ZN17CMsgRecipientItem11IsValidatedEv @ 57 NONAME
	_ZN17CMsgRecipientItem11SetAddressLERK7TDesC16 @ 58 NONAME
	_ZN17CMsgRecipientItem11SetVerifiedEi @ 59 NONAME
	_ZN17CMsgRecipientItem12SetValidatedEi @ 60 NONAME
	_ZN17CMsgRecipientItem2IdEv @ 61 NONAME
	_ZN17CMsgRecipientItem4NameEv @ 62 NONAME
	_ZN17CMsgRecipientItem4NewLERK7TDesC16S2_ @ 63 NONAME
	_ZN17CMsgRecipientItem5NewLCERK7TDesC16S2_ @ 64 NONAME
	_ZN17CMsgRecipientItem5SetIdEl @ 65 NONAME
	_ZN17CMsgRecipientItem7AddressEv @ 66 NONAME
	_ZN17CMsgRecipientItem8SetNameLERK7TDesC16 @ 67 NONAME
	_ZN17CMsgRecipientList4NewLEv @ 68 NONAME
	_ZN17CMsgRecipientList7AppendLEP17CMsgRecipientItem @ 69 NONAME
	_ZN17CMsgRecipientList7InsertLEiP17CMsgRecipientItem @ 70 NONAME
	_ZN18CMsgAddressControl13AddRecipientLERK7TDesC16S2_li @ 71 NONAME ABSENT
	_ZN18CMsgAddressControl14AddRecipientsLERK17CMsgRecipientList @ 72 NONAME
	_ZN18CMsgAddressControl14GetRecipientsLEv @ 73 NONAME
	_ZN18CMsgAddressControl18GetSizeOfAddressesERiS0_ @ 74 NONAME
	_ZN18CMsgAddressControl24GetNextUnverifiedStringLERP7HBufC16 @ 75 NONAME
	_ZN18CMsgAddressControl24ReplaceUnverifiedStringLER13CArrayPtrFlatI17CMsgRecipientItemE @ 76 NONAME
	_ZN18CMsgAddressControl25AddressFieldAutoHighlightEv @ 77 NONAME
	_ZN18CMsgAddressControl25GetFirstUnverifiedStringLERP7HBufC16 @ 78 NONAME
	_ZN18CMsgAddressControl26HighlightUnverifiedStringLEv @ 79 NONAME
	_ZN18CMsgAddressControl27HighlightUnvalidatedStringLEv @ 80 NONAME
	_ZN18CMsgAddressControl28SetAddressFieldAutoHighlightEi @ 81 NONAME
	_ZN18CMsgAddressControl5ResetEv @ 82 NONAME
	_ZN18CMsgAddressControl6ResetLEv @ 83 NONAME
	_ZN18CMsgAddressControl8RefreshLERK13CArrayPtrFlatI17CMsgRecipientItemE @ 84 NONAME
	_ZN21CMsgExpandableControl10ClipboardLE17TMsgClipboardFunc @ 85 NONAME ABSENT
	_ZN21CMsgExpandableControl11MinimumSizeEv @ 86 NONAME
	_ZN21CMsgExpandableControl11SizeChangedEv @ 87 NONAME
	_ZN21CMsgExpandableControl12FocusChangedE8TDrawNow @ 88 NONAME
	_ZN21CMsgExpandableControl14OfferKeyEventLERK9TKeyEvent10TEventCode @ 89 NONAME
	_ZN21CMsgExpandableControl14SetAndGetSizeLER5TSize @ 90 NONAME
	_ZN21CMsgExpandableControl15CurrentLineRectEv @ 91 NONAME ABSENT
	_ZN21CMsgExpandableControl15SetTextContentLER9CRichText @ 92 NONAME
	_ZN21CMsgExpandableControl16SetPlainTextModeEi @ 93 NONAME ABSENT
	_ZN21CMsgExpandableControl17HandleEdwinEventLEP9CEikEdwinN17MEikEdwinObserver11TEdwinEventE @ 94 NONAME ABSENT
	_ZN21CMsgExpandableControl19HandleControlEventLEP11CCoeControlN19MCoeControlObserver9TCoeEventE @ 95 NONAME
	_ZN21CMsgExpandableControl19SetContainerWindowLERK11CCoeControl @ 96 NONAME
	_ZN21CMsgExpandableControl19SetMaxNumberOfCharsEi @ 97 NONAME ABSENT
	_ZN21CMsgExpandableControl20CopyDocumentContentLER11CGlobalTextS1_ @ 98 NONAME ABSENT
	_ZN21CMsgExpandableControl20TextContentStrippedLER6TDes16ii @ 99 NONAME
	_ZN21CMsgExpandableControl21HandleEdwinSizeEventLEP9CEikEdwinN21MEikEdwinSizeObserver15TEdwinSizeEventE5TSize @ 100 NONAME ABSENT
	_ZN21CMsgExpandableControl5EditLE12TMsgEditFunc @ 101 NONAME ABSENT
	_ZN21CMsgExpandableControl5ResetEv @ 102 NONAME
	_ZN21CMsgExpandableControlC1ER23MMsgBaseControlObserver @ 103 NONAME
	_ZN21CMsgExpandableControlC1Ev @ 104 NONAME
	_ZN21CMsgExpandableControlC2ER23MMsgBaseControlObserver @ 105 NONAME
	_ZN21CMsgExpandableControlC2Ev @ 106 NONAME
	_ZN21CMsgExpandableControlD0Ev @ 107 NONAME
	_ZN21CMsgExpandableControlD1Ev @ 108 NONAME
	_ZN21CMsgExpandableControlD2Ev @ 109 NONAME
	_ZN27CMsgExpandableControlEditor10CcpuPasteLEv @ 110 NONAME
	_ZN27CMsgExpandableControlEditor10ConstructLEv @ 111 NONAME
	_ZN27CMsgExpandableControlEditor12FocusChangedE8TDrawNow @ 112 NONAME
	_ZN27CMsgExpandableControlEditor13VirtualHeightEv @ 113 NONAME
	_ZN27CMsgExpandableControlEditor14OfferKeyEventLERK9TKeyEvent10TEventCode @ 114 NONAME
	_ZN27CMsgExpandableControlEditor14SetAndGetSizeLER5TSize @ 115 NONAME
	_ZN27CMsgExpandableControlEditor15SetTextContentLER9CRichText @ 116 NONAME
	_ZN27CMsgExpandableControlEditor16CurrentLineRectLEv @ 117 NONAME
	_ZN27CMsgExpandableControlEditor16CursorInLastLineEv @ 118 NONAME
	_ZN27CMsgExpandableControlEditor17AdjustLineHeightLEv @ 119 NONAME
	_ZN27CMsgExpandableControlEditor17CursorInFirstLineEv @ 120 NONAME
	_ZN27CMsgExpandableControlEditor17IsLastLineVisibleEv @ 121 NONAME
	_ZN27CMsgExpandableControlEditor17VirtualVisibleTopEv @ 122 NONAME
	_ZN27CMsgExpandableControlEditor18IsFirstLineVisibleEv @ 123 NONAME
	_ZN27CMsgExpandableControlEditor22ConstructFromResourceLER15TResourceReader @ 124 NONAME
	_ZN27CMsgExpandableControlEditor22SetBaseControlObserverER23MMsgBaseControlObserver @ 125 NONAME
	_ZN27CMsgExpandableControlEditor5ResetEv @ 126 NONAME
	_ZN27CMsgExpandableControlEditor8CcpuCutLEv @ 127 NONAME
	_ZN27CMsgExpandableControlEditor9ActivateLEv @ 128 NONAME
	_ZN27CMsgExpandableControlEditor9CcpuCopyLEv @ 129 NONAME
	_ZN27CMsgExpandableControlEditor9CcpuUndoLEv @ 130 NONAME
	_ZN27CMsgExpandableControlEditorC1EPK11CCoeControlRmP23MMsgBaseControlObserver @ 131 NONAME
	_ZN27CMsgExpandableControlEditorC1ERmP23MMsgBaseControlObserver @ 132 NONAME
	_ZN27CMsgExpandableControlEditorC2EPK11CCoeControlRmP23MMsgBaseControlObserver @ 133 NONAME
	_ZN27CMsgExpandableControlEditorC2ERmP23MMsgBaseControlObserver @ 134 NONAME
	_ZN27CMsgExpandableControlEditorD0Ev @ 135 NONAME
	_ZN27CMsgExpandableControlEditorD1Ev @ 136 NONAME
	_ZN27CMsgExpandableControlEditorD2Ev @ 137 NONAME
	_ZNK14CMsgEditorView11ControlByIdEi @ 138 NONAME
	_ZNK14CMsgEditorView13FormComponentE17TMsgFormComponent @ 139 NONAME
	_ZNK14CMsgEditorView14FocusedControlEv @ 140 NONAME
	_ZNK14CMsgEditorView20IsAnyControlModifiedEv @ 141 NONAME
	_ZNK15CMsgBaseControl10IsModifiedEv @ 142 NONAME
	_ZNK15CMsgBaseControl10IsReadOnlyEv @ 143 NONAME
	_ZNK15CMsgBaseControl10LabelFontLEv @ 144 NONAME
	_ZNK15CMsgBaseControl15NormalTextFontLEv @ 145 NONAME
	_ZNK15CMsgBaseControl16ComponentControlEi @ 146 NONAME
	_ZNK15CMsgBaseControl22CountComponentControlsEv @ 147 NONAME
	_ZNK15CMsgBaseControl26DistanceFromComponentAboveEv @ 148 NONAME
	_ZNK15CMsgBaseControl7MarginsEv @ 149 NONAME
	_ZNK15CMsgBaseControl9ControlIdEv @ 150 NONAME
	_ZNK15CMsgBodyControl11TextContentEv @ 151 NONAME ABSENT
	_ZNK15CMsgBodyControl14EditPermissionEv @ 152 NONAME ABSENT
	_ZNK15CMsgBodyControl15IsPlainTextModeEv @ 153 NONAME ABSENT
	_ZNK15CMsgBodyControl16IsCursorLocationE18TMsgCursorLocation @ 154 NONAME ABSENT
	_ZNK15CMsgBodyControl17InputCapabilitiesEv @ 155 NONAME
	_ZNK15CMsgBodyControl21IsFocusChangePossibleE18TMsgFocusDirection @ 156 NONAME
	_ZNK15CMsgBodyControl6EditorEv @ 157 NONAME
	_ZNK17CMsgRecipientList2AtEi @ 158 NONAME
	_ZNK17CMsgRecipientList5CountEv @ 159 NONAME
	_ZNK17CMsgRecipientListixEi @ 160 NONAME
	_ZNK18CMsgAddressControl21IsPriorCharSemicolonLEv @ 161 NONAME
	_ZNK21CMsgExpandableControl11TextContentEv @ 162 NONAME ABSENT
	_ZNK21CMsgExpandableControl14EditPermissionEv @ 163 NONAME ABSENT
	_ZNK21CMsgExpandableControl15IsPlainTextModeEv @ 164 NONAME ABSENT
	_ZNK21CMsgExpandableControl16ComponentControlEi @ 165 NONAME
	_ZNK21CMsgExpandableControl16IsCursorLocationE18TMsgCursorLocation @ 166 NONAME ABSENT
	_ZNK21CMsgExpandableControl17InputCapabilitiesEv @ 167 NONAME
	_ZNK21CMsgExpandableControl21IsFocusChangePossibleE18TMsgFocusDirection @ 168 NONAME
	_ZNK21CMsgExpandableControl22CountComponentControlsEv @ 169 NONAME
	_ZNK21CMsgExpandableControl4DrawERK5TRect @ 170 NONAME
	_ZNK21CMsgExpandableControl6EditorEv @ 171 NONAME
	_ZNK21CMsgExpandableControl7CaptionEv @ 172 NONAME
	_ZNK22CMsgCaptionedHighlight4DrawERK5TRect @ 173 NONAME
	_ZNK27CMsgExpandableControlEditor10CcpuCanCutEv @ 174 NONAME
	_ZNK27CMsgExpandableControlEditor11CcpuCanCopyEv @ 175 NONAME
	_ZNK27CMsgExpandableControlEditor11CcpuCanUndoEv @ 176 NONAME
	_ZNK27CMsgExpandableControlEditor12CcpuCanPasteEv @ 177 NONAME
	_ZNK27CMsgExpandableControlEditor13AknItemFinderEv @ 178 NONAME ABSENT
	_ZNK27CMsgExpandableControlEditor13DefaultHeightEv @ 179 NONAME
	_ZNK27CMsgExpandableControlEditor19CheckEditPermissionEv @ 180 NONAME
	_ZNK27CMsgExpandableControlEditor8TextFontEv @ 181 NONAME
	_ZTI10CMsgHeader @ 182 NONAME ; #<TI>#
	_ZTI14CMsgEditorView @ 183 NONAME ; #<TI>#
	_ZTI15CMsgBaseControl @ 184 NONAME ; #<TI>#
	_ZTI15CMsgBodyControl @ 185 NONAME ; #<TI>#
	_ZTI16CMsgControlArray @ 186 NONAME ; #<TI>#
	_ZTI17CMsgFormComponent @ 187 NONAME ; #<TI>#
	_ZTI17CMsgRecipientItem @ 188 NONAME ; #<TI>#
	_ZTI17CMsgRecipientList @ 189 NONAME ; #<TI>#
	_ZTI18CMsgAddressControl @ 190 NONAME ; #<TI>#
	_ZTI20CMsgEditorKeyCatcher @ 191 NONAME ; #<TI>#
	_ZTI21CMsgBodyControlEditor @ 192 NONAME ; #<TI>#
	_ZTI21CMsgExpandableControl @ 193 NONAME ; #<TI>#
	_ZTI22CMsgCaptionedHighlight @ 194 NONAME ; #<TI>#
	_ZTI24CMsgAddressControlEditor @ 195 NONAME ; #<TI>#
	_ZTI27CMsgExpandableControlEditor @ 196 NONAME ; #<TI>#
	_ZTI29CMsgAddressControlEditorField @ 197 NONAME ; #<TI>#
	_ZTI36TMsgAddressControlEditorFieldFactory @ 198 NONAME ; #<TI>#
	_ZTI8CMsgBody @ 199 NONAME ; #<TI>#
	_ZTV10CMsgHeader @ 200 NONAME ; #<VT>#
	_ZTV14CMsgEditorView @ 201 NONAME ; #<VT>#
	_ZTV15CMsgBaseControl @ 202 NONAME ; #<VT>#
	_ZTV15CMsgBodyControl @ 203 NONAME ; #<VT>#
	_ZTV16CMsgControlArray @ 204 NONAME ; #<VT>#
	_ZTV17CMsgFormComponent @ 205 NONAME ; #<VT>#
	_ZTV17CMsgRecipientItem @ 206 NONAME ; #<VT>#
	_ZTV17CMsgRecipientList @ 207 NONAME ; #<VT>#
	_ZTV18CMsgAddressControl @ 208 NONAME ; #<VT>#
	_ZTV20CMsgEditorKeyCatcher @ 209 NONAME ; #<VT>#
	_ZTV21CMsgBodyControlEditor @ 210 NONAME ; #<VT>#
	_ZTV21CMsgExpandableControl @ 211 NONAME ; #<VT>#
	_ZTV22CMsgCaptionedHighlight @ 212 NONAME ; #<VT>#
	_ZTV24CMsgAddressControlEditor @ 213 NONAME ; #<VT>#
	_ZTV27CMsgExpandableControlEditor @ 214 NONAME ; #<VT>#
	_ZTV29CMsgAddressControlEditorField @ 215 NONAME ; #<VT>#
	_ZTV36TMsgAddressControlEditorFieldFactory @ 216 NONAME ; #<VT>#
	_ZTV8CMsgBody @ 217 NONAME ; #<VT>#
	_ZThn148_N15CMsgBodyControl19HandleControlEventLEP11CCoeControlN19MCoeControlObserver9TCoeEventE @ 218 NONAME ABSENT
	_ZThn148_N21CMsgExpandableControl19HandleControlEventLEP11CCoeControlN19MCoeControlObserver9TCoeEventE @ 219 NONAME ABSENT
	_ZThn156_N15CMsgBodyControl21HandleEdwinSizeEventLEP9CEikEdwinN21MEikEdwinSizeObserver15TEdwinSizeEventE5TSize @ 220 NONAME ABSENT
	_ZThn156_N21CMsgExpandableControl21HandleEdwinSizeEventLEP9CEikEdwinN21MEikEdwinSizeObserver15TEdwinSizeEventE5TSize @ 221 NONAME ABSENT
	_ZThn160_N15CMsgBodyControl17HandleEdwinEventLEP9CEikEdwinN17MEikEdwinObserver11TEdwinEventE @ 222 NONAME ABSENT
	_ZThn160_N21CMsgExpandableControl17HandleEdwinEventLEP9CEikEdwinN17MEikEdwinObserver11TEdwinEventE @ 223 NONAME ABSENT
	_ZThn4_N14CMsgEditorView15MopSupplyObjectE8TTypeUid @ 224 NONAME ; #<thunk>#
	_ZThn4_N14CMsgEditorView7MopNextEv @ 225 NONAME ; #<thunk>#
	_ZThn100_N27CMsgExpandableControlEditor10CcpuPasteLEv @ 226 NONAME ; #<thunk>#
	_ZThn100_N27CMsgExpandableControlEditor8CcpuCutLEv @ 227 NONAME ; #<thunk>#
	_ZThn100_N27CMsgExpandableControlEditor9CcpuCopyLEv @ 228 NONAME ; #<thunk>#
	_ZThn100_N27CMsgExpandableControlEditor9CcpuUndoLEv @ 229 NONAME ; #<thunk>#
	_ZThn100_NK27CMsgExpandableControlEditor10CcpuCanCutEv @ 230 NONAME ; #<thunk>#
	_ZThn100_NK27CMsgExpandableControlEditor11CcpuCanCopyEv @ 231 NONAME ; #<thunk>#
	_ZThn100_NK27CMsgExpandableControlEditor11CcpuCanUndoEv @ 232 NONAME ; #<thunk>#
	_ZThn100_NK27CMsgExpandableControlEditor12CcpuCanPasteEv @ 233 NONAME ; #<thunk>#
	_ZN21CMsgAttachmentControl15AddAttachmentsLERK12MDesC16Array @ 234 NONAME
	_ZN21CMsgAttachmentControl15AddAttachmentsLERK19CMsgAttachmentModel @ 235 NONAME
	_ZN21CMsgAttachmentControl17AppendAttachmentLERK7TDesC16 @ 236 NONAME
	_ZN21CMsgAttachmentControl17InsertAttachmentLERK7TDesC16i @ 237 NONAME
	_ZN21CMsgAttachmentControl4NewLER23MMsgBaseControlObserverR14CMsgEditorView @ 238 NONAME
	_ZN21CMsgAttachmentControl5ResetEv @ 239 NONAME
	_ZNK21CMsgAttachmentControl10AttachmentEi @ 240 NONAME
	_ZNK21CMsgAttachmentControl5CountEv @ 241 NONAME
	_ZTI21CMsgAttachmentControl @ 242 NONAME ; #<TI>#
	_ZTV21CMsgAttachmentControl @ 243 NONAME ; #<VT>#
	_ZN17CMsgRecipientItem11ContactLinkEv @ 244 NONAME
	_ZN17CMsgRecipientItem14SetContactLinkEPK16MVPbkContactLink @ 245 NONAME
	_ZN18CMsgAddressControl13AddRecipientLERK7TDesC16S2_iP16MVPbkContactLink @ 246 NONAME
	_ZN15CMsgBaseControl20HandleResourceChangeEi @ 247 NONAME
	_ZN15CMsgBaseControl7ScrollLEi19TMsgScrollDirection @ 248 NONAME
	_ZN14CMsgEditorView17SetEdwinObserverLEP17MEikEdwinObserver @ 249 NONAME
	_ZN21CMsgAttachmentControl17RemoveAttachmentLERK7TDesC16 @ 250 NONAME
	_ZN21CMsgAttachmentControl17RemoveAttachmentLEi @ 251 NONAME
	_ZN20CMsgXhtmlBodyControl4NewLER14CMsgEditorViewP24MMsgAsyncControlObserver @ 252 NONAME
	_ZN14CMsgEditorView14DeleteControlLEi @ 253 NONAME
	_ZN21CMsgExpandableControl20HandleResourceChangeEi @ 254 NONAME
	_ZN21CMsgExpandableControl9ActivateLEv @ 255 NONAME
	_ZN21CMsgExpandableControl15SetTextContentLERK7TDesC16 @ 256 NONAME
	_ZN14CMsgEditorView10ItemFinderEv @ 257 NONAME
	_ZN15CMsgBaseControl10ItemFinderEv @ 258 NONAME
	_ZNK27CMsgExpandableControlEditor10ItemFinderEv @ 259 NONAME
	_ZN31CMsgExpandableTextEditorControl13SetCursorPosLEi @ 260 NONAME
	_ZN31CMsgExpandableTextEditorControl16SetPlainTextModeEi @ 261 NONAME
	_ZN31CMsgExpandableTextEditorControl19SetMaxNumberOfCharsEi @ 262 NONAME
	_ZN31CMsgExpandableTextEditorControl20CopyDocumentContentLER11CGlobalTextS1_ @ 263 NONAME
	_ZN31CMsgExpandableTextEditorControlC2ER23MMsgBaseControlObserver @ 264 NONAME
	_ZN31CMsgExpandableTextEditorControlC2Ev @ 265 NONAME
	_ZN31CMsgExpandableTextEditorControlD0Ev @ 266 NONAME
	_ZN31CMsgExpandableTextEditorControlD1Ev @ 267 NONAME
	_ZN31CMsgExpandableTextEditorControlD2Ev @ 268 NONAME
	_ZNK31CMsgExpandableTextEditorControl11TextContentEv @ 269 NONAME
	_ZNK31CMsgExpandableTextEditorControl15IsPlainTextModeEv @ 270 NONAME
	_ZTI31CMsgExpandableTextEditorControl @ 271 NONAME ; #<TI>#
	_ZTV31CMsgExpandableTextEditorControl @ 272 NONAME ; #<VT>#
	_ZN31CMsgExpandableTextEditorControl9ActivateLEv @ 273 NONAME
	_ZN31CMsgExpandableTextEditorControl10ClipboardLE17TMsgClipboardFunc @ 274 NONAME
	_ZN31CMsgExpandableTextEditorControl13VirtualHeightEv @ 275 NONAME
	_ZN31CMsgExpandableTextEditorControl15CurrentLineRectEv @ 276 NONAME
	_ZN31CMsgExpandableTextEditorControl17VirtualVisibleTopEv @ 277 NONAME
	_ZN31CMsgExpandableTextEditorControl19HandleControlEventLEP11CCoeControlN19MCoeControlObserver9TCoeEventE @ 278 NONAME
	_ZN31CMsgExpandableTextEditorControl22SetBaseControlObserverER23MMsgBaseControlObserver @ 279 NONAME
	_ZN31CMsgExpandableTextEditorControl5EditLE12TMsgEditFunc @ 280 NONAME
	_ZN31CMsgExpandableTextEditorControl7ScrollLEi19TMsgScrollDirection @ 281 NONAME
	_ZNK31CMsgExpandableTextEditorControl14EditPermissionEv @ 282 NONAME
	_ZNK31CMsgExpandableTextEditorControl16IsCursorLocationE18TMsgCursorLocation @ 283 NONAME
	_ZThn136_N21CMsgExpandableControl19HandleControlEventLEP11CCoeControlN19MCoeControlObserver9TCoeEventE @ 284 NONAME ; #<thunk>#
	_ZThn136_N31CMsgExpandableTextEditorControl19HandleControlEventLEP11CCoeControlN19MCoeControlObserver9TCoeEventE @ 285 NONAME ; #<thunk>#
	_ZN31CMsgExpandableTextEditorControl21HandleEdwinSizeEventLEP9CEikEdwinN21MEikEdwinSizeObserver15TEdwinSizeEventE5TSize @ 286 NONAME
	_ZThn144_N31CMsgExpandableTextEditorControl21HandleEdwinSizeEventLEP9CEikEdwinN21MEikEdwinSizeObserver15TEdwinSizeEventE5TSize @ 287 NONAME ; #<thunk>#
	_ZN31CMsgExpandableTextEditorControl17HandleEdwinEventLEP9CEikEdwinN17MEikEdwinObserver11TEdwinEventE @ 288 NONAME
	_ZThn148_N31CMsgExpandableTextEditorControl17HandleEdwinEventLEP9CEikEdwinN17MEikEdwinObserver11TEdwinEventE @ 289 NONAME ; #<thunk>#
	_ZN14CMsgEditorView12SetFindModeLEi @ 290 NONAME
	_ZNK14CMsgEditorView17IsSlideFlowEnableEv @ 291 NONAME
	_ZN14CMsgEditorView13PrepareToExitEv @ 292 NONAME