EXPORTS
	_ZN17CCSRequestHandler15ShutdownServerLEv @ 1 NONAME
	_ZN17CCSRequestHandler17GetCachingStatusLEv @ 2 NONAME
	_ZN17CCSRequestHandler17GetConversationsLEP21CCsClientConversation @ 3 NONAME
	_ZN17CCSRequestHandler18GetConversationIdLEi @ 4 NONAME
	_ZN17CCSRequestHandler19DeleteConversationLEi @ 5 NONAME
	_ZN17CCSRequestHandler19RemoveResultsEventLEP18MCsResultsObserver @ 6 NONAME
	_ZN17CCSRequestHandler20GetConversationListLEv @ 7 NONAME
	_ZN17CCSRequestHandler20GetMessagingHistoryLEi @ 8 NONAME
	_ZN17CCSRequestHandler20GetTotalUnreadCountLEv @ 9 NONAME
	_ZN17CCSRequestHandler20RequestResultsEventLEP18MCsResultsObserver @ 10 NONAME
	_ZN17CCSRequestHandler21MarkConversationReadLEi @ 11 NONAME
	_ZN17CCSRequestHandler22ClearMessagingHistoryLEi @ 12 NONAME
	_ZN17CCSRequestHandler25MarkMessagingHistoryReadLEi @ 13 NONAME
	_ZN17CCSRequestHandler25RemoveCachingStatusEventLEP24MCsCachingStatusObserver @ 14 NONAME
	_ZN17CCSRequestHandler26GetConversationUnreadListLEP13RPointerArrayI21CCsClientConversationE @ 15 NONAME
	_ZN17CCSRequestHandler26RequestCachingStatusEventLEP24MCsCachingStatusObserver @ 16 NONAME
	_ZN17CCSRequestHandler29GetConversationIdFromAddressLER7TDesC16 @ 17 NONAME
	_ZN17CCSRequestHandler30RemoveConversationChangeEventLEP29MCsConversationChangeObserverP21CCsClientConversation @ 18 NONAME
	_ZN17CCSRequestHandler31RequestConversationChangeEventLEP29MCsConversationChangeObserverP21CCsClientConversation @ 19 NONAME
	_ZN17CCSRequestHandler34RemoveConversationListChangeEventLEP33MCsConversationListChangeObserver @ 20 NONAME
	_ZN17CCSRequestHandler35RequestConversationListChangeEventLEP33MCsConversationListChangeObserver @ 21 NONAME
	_ZN17CCSRequestHandler4NewLEv @ 22 NONAME
	_ZN17CCSRequestHandler5NewLCEv @ 23 NONAME
	_ZN19ConversationsEngine11qt_metacallEN11QMetaObject4CallEiPPv @ 24 NONAME
	_ZN19ConversationsEngine11qt_metacastEPKc @ 25 NONAME
	_ZN19ConversationsEngine13resendMessageEi @ 26 NONAME
	_ZN19ConversationsEngine14deleteMessagesER5QListIiE @ 27 NONAME
	_ZN19ConversationsEngine14getDraftsModelEv @ 28 NONAME
	_ZN19ConversationsEngine15downloadMessageEi @ 29 NONAME
	_ZN19ConversationsEngine16getConversationsEx @ 30 NONAME
	_ZN19ConversationsEngine16markMessagesReadER5QListIiE @ 31 NONAME
	_ZN19ConversationsEngine16staticMetaObjectE @ 32 NONAME DATA 16
	_ZN19ConversationsEngine17getContactDetailsExR7QStringS1_ @ 33 NONAME
	_ZN19ConversationsEngine18clearConversationsEv @ 34 NONAME
	_ZN19ConversationsEngine19deleteConversationsEx @ 35 NONAME
	_ZN19ConversationsEngine19getStaticMetaObjectEv @ 36 NONAME
	_ZN19ConversationsEngine20markAsReadAndGetTypeEiRiS0_ @ 37 NONAME
	_ZN19ConversationsEngine20markConversationReadEx @ 38 NONAME
	_ZN19ConversationsEngine21getConversationsModelEv @ 39 NONAME
	_ZN19ConversationsEngine22deleteAllDraftMessagesEv @ 40 NONAME
	_ZN19ConversationsEngine22fetchMoreConversationsEv @ 41 NONAME
	_ZN19ConversationsEngine24conversationModelUpdatedEv @ 42 NONAME
	_ZN19ConversationsEngine24getCurrentConversationIdEv @ 43 NONAME
	_ZN19ConversationsEngine26conversationModelPopulatedEv @ 44 NONAME
	_ZN19ConversationsEngine26downloadOperationSupportedEi @ 45 NONAME
	_ZN19ConversationsEngine28emitConversationModelUpdatedEv @ 46 NONAME
	_ZN19ConversationsEngine28getConversationIdFromAddressE7QString @ 47 NONAME
	_ZN19ConversationsEngine28getConversationsSummaryModelEv @ 48 NONAME
	_ZN19ConversationsEngine30conversationListModelPopulatedEv @ 49 NONAME
	_ZN19ConversationsEngine30emitConversationModelPopulatedEv @ 50 NONAME
	_ZN19ConversationsEngine30getConversationIdFromContactIdEi @ 51 NONAME
	_ZN19ConversationsEngine34emitConversationListModelPopulatedEv @ 52 NONAME
	_ZN19ConversationsEngine8instanceEv @ 53 NONAME
	_ZN19ConversationsEngineC1EP7QObject @ 54 NONAME
	_ZN19ConversationsEngineC2EP7QObject @ 55 NONAME
	_ZN19ConversationsEngineD0Ev @ 56 NONAME
	_ZN19ConversationsEngineD1Ev @ 57 NONAME
	_ZN19ConversationsEngineD2Ev @ 58 NONAME
	_ZN19TConversationEngine11qt_metacallEN11QMetaObject4CallEiPPv @ 59 NONAME
	_ZN19TConversationEngine11qt_metacastEPKc @ 60 NONAME
	_ZN19TConversationEngine12initTestCaseEv @ 61 NONAME
	_ZN19TConversationEngine15cleanupTestCaseEv @ 62 NONAME
	_ZN19TConversationEngine16staticMetaObjectE @ 63 NONAME DATA 16
	_ZN19TConversationEngine18ClearConversationsEv @ 64 NONAME
	_ZN19TConversationEngine19getStaticMetaObjectEv @ 65 NONAME
	_ZN19TConversationEngine22FetchMoreConversationsEv @ 66 NONAME
	_ZN19TConversationEngine26CheckCurrentConversationIDEv @ 67 NONAME
	_ZN19TConversationEngine26GetConversationsFromServerEv @ 68 NONAME
	_ZN19TConversationEngine28GetConversationIDFromAddressEv @ 69 NONAME
	_ZN19TConversationEngine29DeleteConversationAndUpdateCVEv @ 70 NONAME
	_ZN19TConversationEngine29FetchConversationsAndUpdateCVEv @ 71 NONAME
	_ZN19TConversationEngine30GetConversationIDFromContatcIDEv @ 72 NONAME
	_ZN19TConversationEngine31MarkConversationReadAndUpdateCVEv @ 73 NONAME
	_ZN19TConversationEngine35GetContactDetailsFromConversationIDEv @ 74 NONAME
	_ZN19TConversationEngine36GetDraftsModelFromConversationEngineEv @ 75 NONAME
	_ZN19TConversationEngine37NotifyNewConversationEntryAndUpdateCVEv @ 76 NONAME
	_ZN19TConversationEngine39NotifyNewConversationClientAndUpdateCLVEv @ 77 NONAME
	_ZN19TConversationEngine40NotifyConversationClientListAndUpdateCLVEv @ 78 NONAME
	_ZN19TConversationEngine42NotifyDeleteConversationClientAndUpdateCLVEv @ 79 NONAME
	_ZN19TConversationEngine42NotifyModifyConversationClientAndUpdateCLVEv @ 80 NONAME
	_ZN19TConversationEngine4initEv @ 81 NONAME
	_ZN19TConversationEngine7cleanupEv @ 82 NONAME
	_ZNK17CCSRequestHandler7VersionEv @ 83 NONAME
	_ZNK19ConversationsEngine10metaObjectEv @ 84 NONAME
	_ZNK19TConversationEngine10metaObjectEv @ 85 NONAME
	_ZTI19ConversationsEngine @ 86 NONAME
	_ZTI19TConversationEngine @ 87 NONAME
	_ZTV19ConversationsEngine @ 88 NONAME
	_ZTV19TConversationEngine @ 89 NONAME

