EXPORTS
	?HasAudioL@CMsgVideoControl@@QBEHXZ @ 1 NONAME ; int CMsgVideoControl::HasAudioL(void) const
	?IsAnimation@CMsgImageControl@@QBEHXZ @ 2 NONAME ; int CMsgImageControl::IsAnimation(void) const
	?IsOffScreen@CMsgVideoControl@@QBEHXZ @ 3 NONAME ; int CMsgVideoControl::IsOffScreen(void) const
	?LoadIconL@CMsgMediaControl@@QAEHABVTDesC16@@ABVTAknsItemID@@HH@Z @ 4 NONAME ; int CMsgMediaControl::LoadIconL(class TDesC16 const &, class TAknsItemID const &, int, int)
	?NewL@CMsgAudioControl@@SAPAV1@AAVCMsgEditorView@@PAVMMsgAsyncControlObserver@@W4TMdaPriority@@W4TMdaPriorityPreference@@@Z @ 5 NONAME ; class CMsgAudioControl * CMsgAudioControl::NewL(class CMsgEditorView &, class MMsgAsyncControlObserver *, enum TMdaPriority, enum TMdaPriorityPreference)
	?NewL@CMsgImageControl@@SAPAV1@AAVCMsgEditorView@@PAVMMsgAsyncControlObserver@@@Z @ 6 NONAME ; class CMsgImageControl * CMsgImageControl::NewL(class CMsgEditorView &, class MMsgAsyncControlObserver *)
	?NewL@CMsgVideoControl@@SAPAV1@AAVCMsgEditorView@@PAVMMsgAsyncControlObserver@@W4TMdaPriority@@W4TMdaPriorityPreference@@H@Z @ 7 NONAME ; class CMsgVideoControl * CMsgVideoControl::NewL(class CMsgEditorView &, class MMsgAsyncControlObserver *, enum TMdaPriority, enum TMdaPriorityPreference, int)
	?SetAnimationLoopCount@CMsgImageControl@@QAEXH@Z @ 8 NONAME ; void CMsgImageControl::SetAnimationLoopCount(int)
	?SetIconSizeL@CMsgMediaControl@@QAEXABVTSize@@@Z @ 9 NONAME ; void CMsgMediaControl::SetIconSizeL(class TSize const &)
	?SetIconVisible@CMsgMediaControl@@QAEXH@Z @ 10 NONAME ; void CMsgMediaControl::SetIconVisible(int)
	?SetImageFileClosed@CMsgImageControl@@QAEXXZ @ 11 NONAME ; void CMsgImageControl::SetImageFileClosed(void)
	?SetVolumeL@CMsgVideoControl@@QAEXH@Z @ 12 NONAME ; void CMsgVideoControl::SetVolumeL(int)
	?VideoResolutionL@CMsgVideoControl@@QBE?AVTSize@@XZ @ 13 NONAME ; class TSize CMsgVideoControl::VideoResolutionL(void) const
	?FrameSize@CMsgImageControl@@QAE?AVTSize@@XZ @ 14 NONAME ; class TSize CMsgImageControl::FrameSize(void)
	?NewL@CMsgSvgControl@@SAPAV1@AAVCMsgEditorView@@PAVMMsgAsyncControlObserver@@@Z @ 15 NONAME ; class CMsgSvgControl * CMsgSvgControl::NewL(class CMsgEditorView &, class MMsgAsyncControlObserver *)
	?LoadIndicatorIconL@CMsgSvgControl@@QAEXABVTAknsItemID@@ABVTDesC16@@HH@Z @ 16 NONAME ; void CMsgSvgControl::LoadIndicatorIconL(class TAknsItemID const &, class TDesC16 const &, int, int)
	?SetAnimationL@CMsgMediaControl@@QAEXPAVCAknBitmapAnimation@@@Z @ 17 NONAME ; void CMsgMediaControl::SetAnimationL(class CAknBitmapAnimation *)
	?SetAnimationSizeL@CMsgMediaControl@@QAEXABVTSize@@@Z @ 18 NONAME ; void CMsgMediaControl::SetAnimationSizeL(class TSize const &)
	?SetAnimationVisibleL@CMsgMediaControl@@QAEXH@Z @ 19 NONAME ; void CMsgMediaControl::SetAnimationVisibleL(int)
	?IconBitmapId@CMsgMediaControl@@QBEHXZ @ 20 NONAME ; int CMsgMediaControl::IconBitmapId(void) const
	?ReleaseAnimation@CMsgMediaControl@@QAEXXZ @ 21 NONAME ; void CMsgMediaControl::ReleaseAnimation(void)
