EXPORTS
	?ProcessCommandL@CMceSettingsDialog@@UAEXH@Z @ 1 NONAME ; void CMceSettingsDialog::ProcessCommandL(int)
	?MtmAccountsL@CMceSettingsSessionObserver@@UAEPAVCUidNameArray@@VTUid@@@Z @ 2 NONAME ; class CUidNameArray * CMceSettingsSessionObserver::MtmAccountsL(class TUid)
	?DeleteAccountL@CMceSettingsSessionObserver@@UAEXJ@Z @ 3 NONAME ; void CMceSettingsSessionObserver::DeleteAccountL(long)
	?NewL@CMceSettingsSessionObserver@@SAPAV1@PAVCMsvSession@@@Z @ 4 NONAME ; class CMceSettingsSessionObserver * CMceSettingsSessionObserver::NewL(class CMsvSession *)
	??1CMceSettingsSessionObserver@@UAE@XZ @ 5 NONAME ; CMceSettingsSessionObserver::~CMceSettingsSessionObserver(void)
	?CreateAndExecuteL@CMceGeneralSettingsDialog@@SAHPAVCMsvSession@@AAVMMsvSessionObserver@@@Z @ 6 NONAME ; int CMceGeneralSettingsDialog::CreateAndExecuteL(class CMsvSession *, class MMsvSessionObserver &)
	?SetChangeMessageStore@CMceSettingsSessionObserver@@UAEXH@Z @ 7 NONAME ; void CMceSettingsSessionObserver::SetChangeMessageStore(int)
	?IsPresent@CMceSettingsSessionObserver@@UBEHVTUid@@@Z @ 8 NONAME ; int CMceSettingsSessionObserver::IsPresent(class TUid) const
	??1CMceUidNameArray@@UAE@XZ @ 9 NONAME ; CMceUidNameArray::~CMceUidNameArray(void)
	?Session@CMceSettingsSessionObserver@@UAEAAVCMsvSession@@XZ @ 10 NONAME ; class CMsvSession & CMceSettingsSessionObserver::Session(void)
	?DynInitMenuPaneL@CMceSettingsDialog@@UAEXHPAVCEikMenuPane@@@Z @ 11 NONAME ; void CMceSettingsDialog::DynInitMenuPaneL(int, class CEikMenuPane *)
	?CanCreateNewAccountL@CMceSettingsSessionObserver@@UAEHVTUid@@@Z @ 12 NONAME ; int CMceSettingsSessionObserver::CanCreateNewAccountL(class TUid)
	?ExecuteLD@CMceSettingsDialog@@QAEHXZ @ 13 NONAME ; int CMceSettingsDialog::ExecuteLD(void)
	?UiRegistry@CMceSettingsSessionObserver@@QBEPAVCMtmUiDataRegistry@@XZ @ 14 NONAME ; class CMtmUiDataRegistry * CMceSettingsSessionObserver::UiRegistry(void) const
	?PreLayoutDynInitL@CMceSettingsDialog@@MAEXXZ @ 15 NONAME ; void CMceSettingsDialog::PreLayoutDynInitL(void)
	?CreateNewAccountL@CMceSettingsSessionObserver@@UAEHVTUid@@J@Z @ 16 NONAME ; int CMceSettingsSessionObserver::CreateNewAccountL(class TUid, long)
	?NewL@CMceSettingsDialog@@SAPAV1@AAVCMceUidNameArray@@PAVMMceSettingsAccountManager@@PAVCMsvSession@@@Z @ 17 NONAME ; class CMceSettingsDialog * CMceSettingsDialog::NewL(class CMceUidNameArray &, class MMceSettingsAccountManager *, class CMsvSession *)
	?CreateAndExecuteL@CMceSettingsMultipleServicesDialog@@SAHAAVMMceSettingsAccountManager@@VTUid@@PAVCMsvSession@@@Z @ 18 NONAME ; int CMceSettingsMultipleServicesDialog::CreateAndExecuteL(class MMceSettingsAccountManager &, class TUid, class CMsvSession *)
	?NewL@CMceUidNameArray@@SAPAV1@W4TMceUidNameArrayType@1@@Z @ 19 NONAME ; class CMceUidNameArray * CMceUidNameArray::NewL(enum CMceUidNameArray::TMceUidNameArrayType)
	?NewL@CMceSettingsDialog@@SAPAV1@XZ @ 20 NONAME ; class CMceSettingsDialog * CMceSettingsDialog::NewL(void)
	??1CMceSettingsDialog@@UAE@XZ @ 21 NONAME ; CMceSettingsDialog::~CMceSettingsDialog(void)
	?MtmStore@CMceSettingsSessionObserver@@QBEPAVCMtmStore@@XZ @ 22 NONAME ; class CMtmStore * CMceSettingsSessionObserver::MtmStore(void) const
	?Operation@CMceMessageTransHandler@@QBEAAVCMsvOperation@@XZ @ 23 NONAME ; class CMsvOperation & CMceMessageTransHandler::Operation(void) const
	?MtmName@CMceSettingsSessionObserver@@UBE?AV?$TBuf@$0DC@@@VTUid@@@Z @ 24 NONAME ; class TBuf<50> CMceSettingsSessionObserver::MtmName(class TUid) const
	?ShowSelectEmailDlgL@CMceSettingsEmailSel@@SAHAAJAAVTUid@@VTSendingCapabilities@@@Z @ 25 NONAME ; int CMceSettingsEmailSel::ShowSelectEmailDlgL(long &, class TUid &, class TSendingCapabilities)
	?EditAccountL@CMceSettingsSessionObserver@@UAEXJ@Z @ 26 NONAME ; void CMceSettingsSessionObserver::EditAccountL(long)
	?OkToExitL@CMceSettingsDialog@@MAEHH@Z @ 27 NONAME ; int CMceSettingsDialog::OkToExitL(int)

