EXPORTS
	??0CMsgAttaListItemArray@@IAE@AAVCMsgAttachmentModel@@PAV?$CArrayPtr@VCGulIcon@@@@@Z @ 1 NONAME ; protected: __thiscall CMsgAttaListItemArray::CMsgAttaListItemArray(class CMsgAttachmentModel &,class CArrayPtr<class CGulIcon> *)
	??0CMsgEditorAppUi@@QAE@XZ @ 2 NONAME ; public: __thiscall CMsgEditorAppUi::CMsgEditorAppUi(void)
	??0CMsgViewAttachmentsDialog@@QAE@AAVTDesC16@@HAAVCMsgAttachmentModel@@@Z @ 3 NONAME ; public: __thiscall CMsgViewAttachmentsDialog::CMsgViewAttachmentsDialog(class TDesC16 &,int,class CMsgAttachmentModel &)
	??1CMsgAttaListItemArray@@UAE@XZ @ 4 NONAME ; public: virtual __thiscall CMsgAttaListItemArray::~CMsgAttaListItemArray(void)
	??1CMsgCheckNames@@UAE@XZ @ 5 NONAME ; public: virtual __thiscall CMsgCheckNames::~CMsgCheckNames(void)
	??1CMsgEditorAppUi@@UAE@XZ @ 6 NONAME ; public: virtual __thiscall CMsgEditorAppUi::~CMsgEditorAppUi(void)
	??1CMsgViewAttachmentsDialog@@UAE@XZ @ 7 NONAME ; public: virtual __thiscall CMsgViewAttachmentsDialog::~CMsgViewAttachmentsDialog(void)
	?CallToSenderQueryL@CMsgEditorAppUi@@QAEHABVTDesC16@@0@Z @ 8 NONAME ; public: int __thiscall CMsgEditorAppUi::CallToSenderQueryL(class TDesC16 const &,class TDesC16 const &)
	?CleanupPointer@CMsgViewAttachmentsDialog@@SAXPAX@Z @ 9 NONAME ; public: static void __cdecl CMsgViewAttachmentsDialog::CleanupPointer(void *)
	?ComparePhoneNumberL@CMsgEditorAppUi@@QAEHABVTDesC16@@0H@Z @ 10 NONAME ABSENT
	?ConstructL@CMsgAttaListItemArray@@QAEXXZ @ 11 NONAME ; public: void __thiscall CMsgAttaListItemArray::ConstructL(void)
	?ConstructL@CMsgEditorAppUi@@UAEXXZ @ 12 NONAME ; public: virtual void __thiscall CMsgEditorAppUi::ConstructL(void)
	?ConstructL@CMsgViewAttachmentsDialog@@QAEXXZ @ 13 NONAME ; public: void __thiscall CMsgViewAttachmentsDialog::ConstructL(void)
	?CreateCustomControlL@CMsgEditorAppUi@@MAEPAVCMsgBaseControl@@H@Z @ 14 NONAME ; protected: virtual class CMsgBaseControl * __thiscall CMsgEditorAppUi::CreateCustomControlL(int)
	?CreateCustomControlL@CMsgViewAttachmentsDialog@@MAE?AUSEikControlInfo@@H@Z @ 15 NONAME ; protected: virtual struct SEikControlInfo  __thiscall CMsgViewAttachmentsDialog::CreateCustomControlL(int)
	?CurrentListItemIndex@CMsgViewAttachmentsDialog@@QAEHXZ @ 16 NONAME ; public: int __thiscall CMsgViewAttachmentsDialog::CurrentListItemIndex(void)
	?DeleteAndExitL@CMsgEditorAppUi@@IAEXXZ @ 17 NONAME ; protected: void __thiscall CMsgEditorAppUi::DeleteAndExitL(void)
	?DeleteCurrentEntryL@CMsgEditorAppUi@@IAEXXZ @ 18 NONAME ; protected: void __thiscall CMsgEditorAppUi::DeleteCurrentEntryL(void)
	?DynInitMenuPaneL@CMsgViewAttachmentsDialog@@UAEXHPAVCEikMenuPane@@@Z @ 19 NONAME ; public: virtual void __thiscall CMsgViewAttachmentsDialog::DynInitMenuPaneL(int,class CEikMenuPane *)
	?EditorObserver@CMsgEditorAppUi@@MAEXW4TMsgEditorObserverFunc@MMsgEditorObserver@@PAX11@Z @ 20 NONAME ; protected: virtual void __thiscall CMsgEditorAppUi::EditorObserver(enum MMsgEditorObserver::TMsgEditorObserverFunc,void *,void *,void *)
	?FindAndCheckByNameL@CMsgCheckNames@@QAEPAVCContactIdArray@@PAVCPbkContactEngine@@ABVTDesC16@@H@Z @ 21 NONAME ABSENT
	?ForwardL@CMsgEditorAppUi@@QAEXJ@Z @ 22 NONAME ; public: void __thiscall CMsgEditorAppUi::ForwardL(long)
	?HandleCloseSessionL@CMsgEditorAppUi@@MAEXXZ @ 23 NONAME ; protected: virtual void __thiscall CMsgEditorAppUi::HandleCloseSessionL(void)
	?HandleCorruptedIndexRebuildingL@CMsgEditorAppUi@@MAEXXZ @ 24 NONAME ; protected: virtual void __thiscall CMsgEditorAppUi::HandleCorruptedIndexRebuildingL(void)
	?HandleCorruptedIndexRebuiltL@CMsgEditorAppUi@@MAEXXZ @ 25 NONAME ; protected: virtual void __thiscall CMsgEditorAppUi::HandleCorruptedIndexRebuiltL(void)
	?HandleEntryChangeL@CMsgEditorAppUi@@MAEXXZ @ 26 NONAME ; protected: virtual void __thiscall CMsgEditorAppUi::HandleEntryChangeL(void)
	?HandleEntryDeletedL@CMsgEditorAppUi@@MAEXXZ @ 27 NONAME ; protected: virtual void __thiscall CMsgEditorAppUi::HandleEntryDeletedL(void)
	?HandleEntryMovedL@CMsgEditorAppUi@@MAEXJJ@Z @ 28 NONAME ; protected: virtual void __thiscall CMsgEditorAppUi::HandleEntryMovedL(long,long)
	?HandleGeneralErrorL@CMsgEditorAppUi@@MAEXH@Z @ 29 NONAME ; protected: virtual void __thiscall CMsgEditorAppUi::HandleGeneralErrorL(int)
	?HandleIteratorEventL@CMsgEditorAppUi@@MAEXW4TMessageIteratorEvent@MMessageIteratorObserver@@@Z @ 30  NONAME ; void CMsgEditorAppUi::HandleIteratorEventL(enum MMessageIteratorObserver::TMessageIteratorEvent)
	?HandleKeyEventL@CMsgEditorAppUi@@UAE?AW4TKeyResponse@@ABUTKeyEvent@@W4TEventCode@@@Z @ 31 NONAME ; public: virtual enum TKeyResponse  __thiscall CMsgEditorAppUi::HandleKeyEventL(struct TKeyEvent const &,enum TEventCode)
	?HandleListBoxEventL@CMsgViewAttachmentsDialog@@MAEXPAVCEikListBox@@W4TListBoxEvent@MEikListBoxObserver@@@Z @ 32 NONAME ; protected: virtual void __thiscall CMsgViewAttachmentsDialog::HandleListBoxEventL(class CEikListBox *,enum MEikListBoxObserver::TListBoxEvent)
	?HandleMatchesLC@CMsgCheckNames@@QAEPAV?$CArrayPtrFlat@VCMsgRecipientItem@@@@PAVCPbkContactEngine@@H@Z @ 33 NONAME ABSENT
	?HandleMediaAvailableL@CMsgEditorAppUi@@MAEXXZ @ 34 NONAME ; protected: virtual void __thiscall CMsgEditorAppUi::HandleMediaAvailableL(void)
	?HandleMediaChangedL@CMsgEditorAppUi@@MAEXXZ @ 35 NONAME ; protected: virtual void __thiscall CMsgEditorAppUi::HandleMediaChangedL(void)
	?HandleMediaIncorrectL@CMsgEditorAppUi@@MAEXXZ @ 36 NONAME ; protected: virtual void __thiscall CMsgEditorAppUi::HandleMediaIncorrectL(void)
	?HandleMediaUnavailableL@CMsgEditorAppUi@@MAEXXZ @ 37 NONAME ; protected: virtual void __thiscall CMsgEditorAppUi::HandleMediaUnavailableL(void)
	?HandleMtmGroupDeinstalledL@CMsgEditorAppUi@@MAEXXZ @ 38 NONAME ; protected: virtual void __thiscall CMsgEditorAppUi::HandleMtmGroupDeinstalledL(void)
	?HandleResourceChangeL@CMsgEditorAppUi@@UAEXH@Z @ 39 NONAME ; public: virtual void __thiscall CMsgEditorAppUi::HandleResourceChangeL(int)
	?HandleServerFailedToStartL@CMsgEditorAppUi@@MAEXXZ @ 40 NONAME ; protected: virtual void __thiscall CMsgEditorAppUi::HandleServerFailedToStartL(void)
	?HandleServerTerminatedL@CMsgEditorAppUi@@MAEXXZ @ 41 NONAME ; protected: virtual void __thiscall CMsgEditorAppUi::HandleServerTerminatedL(void)
	?HandleWsEventL@CMsgEditorAppUi@@UAEXABVTWsEvent@@PAVCCoeControl@@@Z @ 42 NONAME ; public: virtual void __thiscall CMsgEditorAppUi::HandleWsEventL(class TWsEvent const &,class CCoeControl *)
	?InsertAttachmentL@CMsgViewAttachmentsDialog@@EAEXABV?$TBuf@$0BAA@@@HH@Z @ 43 NONAME ; private: virtual void __thiscall CMsgViewAttachmentsDialog::InsertAttachmentL(class TBuf<256> const &,int,int)
	?InsertTemplateL@CMsgEditorAppUi@@QAEHH@Z @ 44 NONAME ; public: int __thiscall CMsgEditorAppUi::InsertTemplateL(int)
	?IsLaunchedL@CMsgEditorAppUi@@IBEHXZ @ 45 NONAME ; protected: int __thiscall CMsgEditorAppUi::IsLaunchedL(void)const 
	?IsLockedEntry@CMsgEditorAppUi@@QBEHXZ @ 46 NONAME ; public: int __thiscall CMsgEditorAppUi::IsLockedEntry(void)const 
	?IsNextMessageAvailableL@CMsgEditorAppUi@@IAEHH@Z @ 47 NONAME ; protected: int __thiscall CMsgEditorAppUi::IsNextMessageAvailableL(int)
	?ItemAddedL@CMsgViewAttachmentsDialog@@QAEXH@Z @ 48 NONAME ; public: void __thiscall CMsgViewAttachmentsDialog::ItemAddedL(int)
	?ItemRemovedL@CMsgViewAttachmentsDialog@@QAEXH@Z @ 49 NONAME ; public: void __thiscall CMsgViewAttachmentsDialog::ItemRemovedL(int)
	?LoadFormDataL@CMsgViewAttachmentsDialog@@EAEXXZ @ 50 NONAME ; private: virtual void __thiscall CMsgViewAttachmentsDialog::LoadFormDataL(void)
	?LockEntryL@CMsgEditorAppUi@@QAEXXZ @ 51 NONAME ; public: void __thiscall CMsgEditorAppUi::LockEntryL(void)
	?MdcaCount@CMsgAttaListItemArray@@UBEHXZ @ 52 NONAME ; public: virtual int __thiscall CMsgAttaListItemArray::MdcaCount(void)const 
	?MenuBar@CMsgEditorAppUi@@QBEPAVCEikMenuBar@@XZ @ 53 NONAME ; public: class CEikMenuBar * __thiscall CMsgEditorAppUi::MenuBar(void)const 
	?MessageIndexInFolderL@CMsgEditorAppUi@@IAEXAAH0@Z @ 54 NONAME ; protected: void __thiscall CMsgEditorAppUi::MessageIndexInFolderL(int &,int &)
	?MoveMessageEntryL@CMsgEditorAppUi@@IBEJJ@Z @ 55 NONAME ; protected: long __thiscall CMsgEditorAppUi::MoveMessageEntryL(long)const 
	?NewL@CMsgAttaListItemArray@@SAPAV1@AAVCMsgAttachmentModel@@PAV?$CArrayPtr@VCGulIcon@@@@@Z @ 56 NONAME ; public: static class CMsgAttaListItemArray * __cdecl CMsgAttaListItemArray::NewL(class CMsgAttachmentModel &,class CArrayPtr<class CGulIcon> *)
	?NewL@CMsgCheckNames@@SAPAV1@XZ @ 57 NONAME ; public: static class CMsgCheckNames * __cdecl CMsgCheckNames::NewL(void)
	?NewLC@CMsgCheckNames@@SAPAV1@XZ @ 58 NONAME ; public: static class CMsgCheckNames * __cdecl CMsgCheckNames::NewLC(void)
	?NextMessageL@CMsgEditorAppUi@@IAEXH@Z @ 59 NONAME ; protected: void __thiscall CMsgEditorAppUi::NextMessageL(int)
	?OkToExitL@CMsgViewAttachmentsDialog@@MAEHH@Z @ 60 NONAME ; protected: virtual int __thiscall CMsgViewAttachmentsDialog::OkToExitL(int)
	?PreLayoutDynInitL@CMsgViewAttachmentsDialog@@MAEXXZ @ 61 NONAME ; void CMsgViewAttachmentsDialog::PreLayoutDynInitL(void)
	?PrepareToExit@CMsgEditorAppUi@@UAEXXZ @ 62 NONAME ; public: virtual void __thiscall CMsgEditorAppUi::PrepareToExit(void)
	?ProcessCommandL@CMsgViewAttachmentsDialog@@UAEXH@Z @ 63 NONAME ; public: virtual void __thiscall CMsgViewAttachmentsDialog::ProcessCommandL(int)
	?ProcessCommandParametersL@CMsgEditorAppUi@@MAEHW4TApaCommand@@AAV?$TBuf@$0BAA@@@ABVTDesC8@@@Z @ 64 NONAME ; protected: virtual int __thiscall CMsgEditorAppUi::ProcessCommandParametersL(enum TApaCommand,class TBuf<256> &,class TDesC8 const &)
	?RemoveAttachmentL@CMsgViewAttachmentsDialog@@EAEXH@Z @ 65 NONAME ; private: virtual void __thiscall CMsgViewAttachmentsDialog::RemoveAttachmentL(int)
	?ReplyL@CMsgEditorAppUi@@QAEXJH@Z @ 66 NONAME ; public: void __thiscall CMsgEditorAppUi::ReplyL(long,int)
	?ReplyToAllL@CMsgEditorAppUi@@QAEXJH@Z @ 67 NONAME ; public: void __thiscall CMsgEditorAppUi::ReplyToAllL(long,int)
	?SetEmphasis@CMsgEditorAppUi@@EAEXPAVCCoeControl@@H@Z @ 68 NONAME ; private: virtual void __thiscall CMsgEditorAppUi::SetEmphasis(class CCoeControl *,int)
	?UnlockEntry@CMsgEditorAppUi@@QAEXXZ @ 69 NONAME ; public: void __thiscall CMsgEditorAppUi::UnlockEntry(void)
	?UpdateIcon@CMsgViewAttachmentsDialog@@QAEXH@Z @ 70 NONAME ; public: void __thiscall CMsgViewAttachmentsDialog::UpdateIcon(int)
	?UpdateNaviPaneL@CMsgEditorAppUi@@QAEXPBVCFbsBitmap@@0@Z @ 71 NONAME ; public: void __thiscall CMsgEditorAppUi::UpdateNaviPaneL(class CFbsBitmap const *,class CFbsBitmap const *)
	?ShowCloseQueryL@CMsgEditorAppUi@@QAEHXZ @ 72 NONAME ; public: int __thiscall CMsgEditorAppUi::ShowCloseQueryL(void)
	?HandleResourceChange@CMsgViewAttachmentsDialog@@UAEXH@Z @ 73 NONAME ; public: virtual void __thiscall CMsgViewAttachmentsDialog::HandleResourceChange(int)
	?Exit@CMsgEditorAppUi@@IAEXH@Z @ 74 NONAME ; void CMsgEditorAppUi::Exit(int)
	?CreateSubjectPrefixStringL@CMsgEditorAppUi@@QAEPAVHBufC16@@ABVTDesC16@@H@Z @ 75 NONAME ; public: class HBufC16 * __thiscall CMsgEditorAppUi::CreateSubjectPrefixStringL(class TDesC16 const &,int)
	?ConstructL@CMsgViewAttachmentsDialog@@QAEXAAVCMsvEntry@@@Z @ 76 NONAME ; public: void __thiscall CMsgViewAttachmentsDialog::ConstructL(class CMsvEntry &)
	??0CMsgEditorBaseUi@@QAE@XZ @ 77 NONAME ; CMsgEditorBaseUi::CMsgEditorBaseUi(void)
	??1CMsgEditorBaseUi@@UAE@XZ @ 78 NONAME ; CMsgEditorBaseUi::~CMsgEditorBaseUi(void)
	?OpenParamList@CMsgViewAttachmentsDialog@@IAEPAVCAiwGenericParamList@@XZ @ 79 NONAME ; class CAiwGenericParamList * CMsgViewAttachmentsDialog::OpenParamList(void)
	?SetOpenParamList@CMsgViewAttachmentsDialog@@IAEXPAVCAiwGenericParamList@@@Z @ 80 NONAME ; void CMsgViewAttachmentsDialog::SetOpenParamList(class CAiwGenericParamList *)
	?InsertTextMemoL@CMsgEditorAppUi@@QAEHH@Z @ 81 NONAME ; int CMsgEditorAppUi::InsertTextMemoL(int)
	?FetchRecipientsL@CMsgCheckNames@@QAEXAAV?$CArrayPtrFlat@VCMsgRecipientItem@@@@W4TMsgAddressSelectType@1@@Z @ 82 NONAME ; void CMsgCheckNames::FetchRecipientsL(class CArrayPtrFlat<class CMsgRecipientItem> &, enum CMsgCheckNames::TMsgAddressSelectType)
	?FindAndCheckByNameL@CMsgCheckNames@@QAEHABVTDesC16@@W4TMsgAddressSelectType@1@AAV?$CArrayPtrFlat@VCMsgRecipientItem@@@@H@Z @ 83 NONAME ; int CMsgCheckNames::FindAndCheckByNameL(class TDesC16 const &, enum CMsgCheckNames::TMsgAddressSelectType, class CArrayPtrFlat<class CMsgRecipientItem> &, int)
	?HandleControlStateChangeL@CMsgViewAttachmentsDialog@@MAEXH@Z @ 84 NONAME ; void CMsgViewAttachmentsDialog::HandleControlStateChangeL(int)
	?GetValue@TMsgEditorSettingCacheUpdatePlugin@@UBEHHAAH@Z @ 85 NONAME ; int TMsgEditorSettingCacheUpdatePlugin::GetValue(int, int &) const
	?HandleLocalZoomChangeL@CMsgEditorAppUi@@IAEXW4TMsgCommonCommands@@@Z @ 86 NONAME ; void CMsgEditorAppUi::HandleLocalZoomChangeL(enum TMsgCommonCommands)
	?FetchRecipientsL@CMsgCheckNames@@QAEXAAVCVPbkContactLinkArray@@W4TMsgAddressSelectType@1@@Z @ 87 NONAME ; void CMsgCheckNames::FetchRecipientsL(class CVPbkContactLinkArray &, enum CMsgCheckNames::TMsgAddressSelectType)
	??0CMsgEditorAppUiExtension@@QAE@PAVCAknAppUi@@@Z @ 88 NONAME ; CMsgEditorAppUiExtension::CMsgEditorAppUiExtension(class CAknAppUi *)
	??0TMsgEditorSettingCacheUpdatePlugin@@QAE@PAVCAknAppUi@@@Z @ 89 NONAME ; TMsgEditorSettingCacheUpdatePlugin::TMsgEditorSettingCacheUpdatePlugin(class CAknAppUi *)
	??1TMsgEditorSettingCacheUpdatePlugin@@UAE@XZ @ 90 NONAME ; TMsgEditorSettingCacheUpdatePlugin::~TMsgEditorSettingCacheUpdatePlugin(void)
	?CanFastOpenL@CMsgEditorAppUi@@EAEHABVCMessageIterator@@@Z @ 91 NONAME ; int CMsgEditorAppUi::CanFastOpenL(class CMessageIterator const &)
	?AknInputBlockCancel@CMsgEditorAppUi@@UAEXXZ @ 92 NONAME ; void CMsgEditorAppUi::AknInputBlockCancel(void)
	?CreateViewerNaviPaneL@CMsgEditorAppUi@@IAEXVTTime@@W4TMsgEditorMsgPriority@@H@Z @ 93 NONAME ; void CMsgEditorAppUi::CreateViewerNaviPaneL(class TTime, enum TMsgEditorMsgPriority, int)
	?HandleNavigationControlEventL@CMsgEditorAppUi@@UAEXW4TMsgNaviControlEventId@MMsgNaviPaneControlObserver@@@Z @ 94 NONAME ; void CMsgEditorAppUi::HandleNavigationControlEventL(enum MMsgNaviPaneControlObserver::TMsgNaviControlEventId)
	?NewL@CMsgNaviPaneControl@@SAPAV1@PBVCCoeControl@@@Z @ 95 NONAME ; class CMsgNaviPaneControl * CMsgNaviPaneControl::NewL(class CCoeControl const *)
	?SetNavigationControlObserver@CMsgNaviPaneControl@@QAEXPAVMMsgNaviPaneControlObserver@@@Z @ 96 NONAME ; void CMsgNaviPaneControl::SetNavigationControlObserver(class MMsgNaviPaneControlObserver *)
	?SetNavigationIndicatorL@CMsgNaviPaneControl@@QAEXAAVCMsvSession@@ABVTMsvEntry@@@Z @ 97 NONAME ; void CMsgNaviPaneControl::SetNavigationIndicatorL(class CMsvSession &, class TMsvEntry const &)
	?SetPriorityIndicatorL@CMsgNaviPaneControl@@QAEXW4TMsgEditorMsgPriority@@@Z @ 98 NONAME ; void CMsgNaviPaneControl::SetPriorityIndicatorL(enum TMsgEditorMsgPriority)
	?SetTimeIndicatorL@CMsgNaviPaneControl@@QAEXVTTime@@H@Z @ 99 NONAME ; void CMsgNaviPaneControl::SetTimeIndicatorL(class TTime, int)
	?SetTitleIconSizeL@CMsgEditorAppUi@@IAEXPAVCFbsBitmap@@@Z @ 100 NONAME ; void CMsgEditorAppUi::SetTitleIconSizeL(class CFbsBitmap *)
	?HandleStatusPaneSizeChange@CMsgEditorAppUi@@UAEXXZ @ 101 NONAME ; void CMsgEditorAppUi::HandleStatusPaneSizeChange(void)
	?HandleServerAppExit@CMsgViewAttachmentsDialog@@UAEXH@Z @ 102 NONAME ; void CMsgViewAttachmentsDialog::HandleServerAppExit(int)
	?GetAliasL@CMsgCheckNames@@QAEXABVTDesC16@@AAVTDes16@@H@Z @ 103 NONAME ; void CMsgCheckNames::GetAliasL(class TDesC16 const &, class TDes16 &, int)

