EXPORTS
	?fetchMoreConversations@ConversationsEngine@@QAEXXZ @ 1 NONAME ; void ConversationsEngine::fetchMoreConversations(void)
	?getContactDetails@ConversationsEngine@@QAEX_JAAVQString@@11@Z @ 2 NONAME ; void ConversationsEngine::getContactDetails(long long, class QString &, class QString &, class QString &)
	?getConversationIdFromAddress@ConversationsEngine@@QAE_JVQString@@@Z @ 3 NONAME ; long long ConversationsEngine::getConversationIdFromAddress(class QString)
	?metaObject@ConversationsEngine@@UBEPBUQMetaObject@@XZ @ 4 NONAME ; struct QMetaObject const * ConversationsEngine::metaObject(void) const
	??1ConversationsEngine@@UAE@XZ @ 5 NONAME ; ConversationsEngine::~ConversationsEngine(void)
	?markConversationRead@ConversationsEngine@@QAE_N_J@Z @ 6 NONAME ; bool ConversationsEngine::markConversationRead(long long)
	?getCurrentConversationId@ConversationsEngine@@QAE_JXZ @ 7 NONAME ; long long ConversationsEngine::getCurrentConversationId(void)
	??_EConversationsEngine@@UAE@I@Z @ 8 NONAME ; ConversationsEngine::~ConversationsEngine(unsigned int)
	?deleteConversations@ConversationsEngine@@QAE_N_J@Z @ 9 NONAME ; bool ConversationsEngine::deleteConversations(long long)
	?getConversationsSummaryModel@ConversationsEngine@@QAEPAVQStandardItemModel@@XZ @ 10 NONAME ; class QStandardItemModel * ConversationsEngine::getConversationsSummaryModel(void)
	?trUtf8@ConversationsEngine@@SA?AVQString@@PBD0@Z @ 11 NONAME ; class QString ConversationsEngine::trUtf8(char const *, char const *)
	?qt_metacast@ConversationsEngine@@UAEPAXPBD@Z @ 12 NONAME ; void * ConversationsEngine::qt_metacast(char const *)
	?emitConversationListModelPopulated@ConversationsEngine@@QAEXXZ @ 13 NONAME ; void ConversationsEngine::emitConversationListModelPopulated(void)
	?conversationListModelPopulated@ConversationsEngine@@IAEXXZ @ 14 NONAME ; void ConversationsEngine::conversationListModelPopulated(void)
	?getDraftsModel@ConversationsEngine@@QAEPAVQStandardItemModel@@XZ @ 15 NONAME ; class QStandardItemModel * ConversationsEngine::getDraftsModel(void)
	??0ConversationsEngine@@AAE@PAVQObject@@@Z @ 16 NONAME ; ConversationsEngine::ConversationsEngine(class QObject *)
	?trUtf8@ConversationsEngine@@SA?AVQString@@PBD0H@Z @ 17 NONAME ; class QString ConversationsEngine::trUtf8(char const *, char const *, int)
	?tr@ConversationsEngine@@SA?AVQString@@PBD0H@Z @ 18 NONAME ; class QString ConversationsEngine::tr(char const *, char const *, int)
	?conversationModelUpdated@ConversationsEngine@@IAEXXZ @ 19 NONAME ; void ConversationsEngine::conversationModelUpdated(void)
	?instance@ConversationsEngine@@SAPAV1@XZ @ 20 NONAME ; class ConversationsEngine * ConversationsEngine::instance(void)
	?tr@ConversationsEngine@@SA?AVQString@@PBD0@Z @ 21 NONAME ; class QString ConversationsEngine::tr(char const *, char const *)
	?getStaticMetaObject@ConversationsEngine@@SAABUQMetaObject@@XZ @ 22 NONAME ; struct QMetaObject const & ConversationsEngine::getStaticMetaObject(void)
	?getConversations@ConversationsEngine@@QAE_N_J@Z @ 23 NONAME ; bool ConversationsEngine::getConversations(long long)
	?emitConversationModelUpdated@ConversationsEngine@@QAEXXZ @ 24 NONAME ; void ConversationsEngine::emitConversationModelUpdated(void)
	?clearConversations@ConversationsEngine@@QAE_NXZ @ 25 NONAME ; bool ConversationsEngine::clearConversations(void)
	?markMessagesRead@ConversationsEngine@@QAE_NAAV?$QList@H@@@Z @ 26 NONAME ; bool ConversationsEngine::markMessagesRead(class QList<int> &)
	?conversationModelPopulated@ConversationsEngine@@IAEXXZ @ 27 NONAME ; void ConversationsEngine::conversationModelPopulated(void)
	?getConversationIdFromContactId@ConversationsEngine@@QAE_JH@Z @ 28 NONAME ; long long ConversationsEngine::getConversationIdFromContactId(int)
	?staticMetaObject@ConversationsEngine@@2UQMetaObject@@B @ 29 NONAME ; struct QMetaObject const ConversationsEngine::staticMetaObject
	?deleteMessages@ConversationsEngine@@QAEXAAV?$QList@H@@@Z @ 30 NONAME ; void ConversationsEngine::deleteMessages(class QList<int> &)
	?getConversationsModel@ConversationsEngine@@QAEPAVQStandardItemModel@@XZ @ 31 NONAME ; class QStandardItemModel * ConversationsEngine::getConversationsModel(void)
	?emitConversationModelPopulated@ConversationsEngine@@QAEXXZ @ 32 NONAME ; void ConversationsEngine::emitConversationModelPopulated(void)
	?qt_metacall@ConversationsEngine@@UAEHW4Call@QMetaObject@@HPAPAX@Z @ 33 NONAME ; int ConversationsEngine::qt_metacall(enum QMetaObject::Call, int, void * *)

