EXPORTS
	?createMmsView@SettingsViewer@@QAEXXZ @ 1 NONAME ; void SettingsViewer::createMmsView(void)
	??0SettingsViewer@@QAE@PAVQGraphicsItem@@@Z @ 2 NONAME ; SettingsViewer::SettingsViewer(class QGraphicsItem *)
	?openMmsSettings@SettingsViewer@@QAEXXZ @ 3 NONAME ; void SettingsViewer::openMmsSettings(void)
	??1SettingsViewer@@UAE@XZ @ 4 NONAME ; SettingsViewer::~SettingsViewer(void)
	?staticMetaObject@SettingsViewer@@2UQMetaObject@@B @ 5 NONAME ; struct QMetaObject const SettingsViewer::staticMetaObject
	??_ESettingsViewer@@UAE@I@Z @ 6 NONAME ; SettingsViewer::~SettingsViewer(unsigned int)
	?qt_metacast@SettingsViewer@@UAEPAXPBD@Z @ 7 NONAME ; void * SettingsViewer::qt_metacast(char const *)
	?initView@SettingsViewer@@QAEXXZ @ 8 NONAME ; void SettingsViewer::initView(void)
	?softkeyClicked@SettingsViewer@@QAEXXZ @ 9 NONAME ; void SettingsViewer::softkeyClicked(void)
	?changeAccessPoint@SettingsViewer@@QAEXH@Z @ 10 NONAME ; void SettingsViewer::changeAccessPoint(int)
	?trUtf8@SettingsViewer@@SA?AVQString@@PBD0@Z @ 11 NONAME ; class QString SettingsViewer::trUtf8(char const *, char const *)
	?trUtf8@SettingsViewer@@SA?AVQString@@PBD0H@Z @ 12 NONAME ; class QString SettingsViewer::trUtf8(char const *, char const *, int)
	?metaObject@SettingsViewer@@UBEPBUQMetaObject@@XZ @ 13 NONAME ; struct QMetaObject const * SettingsViewer::metaObject(void) const
	?openSmsSettings@SettingsViewer@@QAEXXZ @ 14 NONAME ; void SettingsViewer::openSmsSettings(void)
	?tr@SettingsViewer@@SA?AVQString@@PBD0H@Z @ 15 NONAME ; class QString SettingsViewer::tr(char const *, char const *, int)
	?iAPSelector@SettingsViewer@@QAEXPAVQStringList@@@Z @ 16 NONAME ; void SettingsViewer::iAPSelector(class QStringList *)
	?closeSettings@SettingsViewer@@QAEXXZ @ 17 NONAME ; void SettingsViewer::closeSettings(void)
	?qt_metacall@SettingsViewer@@UAEHW4Call@QMetaObject@@HPAPAX@Z @ 18 NONAME ; int SettingsViewer::qt_metacall(enum QMetaObject::Call, int, void * *)
	?changeService@SettingsViewer@@QAEXXZ @ 19 NONAME ; void SettingsViewer::changeService(void)
	?createSmsView@SettingsViewer@@QAEXXZ @ 20 NONAME ; void SettingsViewer::createSmsView(void)
	?settingsViewerClosed@SettingsViewer@@IAEXXZ @ 21 NONAME ; void SettingsViewer::settingsViewerClosed(void)
	?tr@SettingsViewer@@SA?AVQString@@PBD0@Z @ 22 NONAME ; class QString SettingsViewer::tr(char const *, char const *)
	?getStaticMetaObject@SettingsViewer@@SAABUQMetaObject@@XZ @ 23 NONAME ; struct QMetaObject const & SettingsViewer::getStaticMetaObject(void)
	?settingListClosed@SettingsViewer@@QAEXXZ @ 24 NONAME ; void SettingsViewer::settingListClosed(void)

