EXPORTS
	?setDeliveryReport@MsgSettingEngine@@QAEX_N@Z @ 1 NONAME ; void MsgSettingEngine::setDeliveryReport(bool)
	?allSMSMessageCenter@MsgSettingEngine@@QAEXAAVQStringList@@AAH@Z @ 2 NONAME ; void MsgSettingEngine::allSMSMessageCenter(class QStringList &, int &)
	?setMMSAccesspoint@MsgSettingEngine@@QAEXH@Z @ 3 NONAME ; void MsgSettingEngine::setMMSAccesspoint(int)
	?emailEmailGatewayAndServiceCenterNumber@MsgSettingEngine@@QAEXAAVQString@@0@Z @ 4 NONAME ; void MsgSettingEngine::emailEmailGatewayAndServiceCenterNumber(class QString &, class QString &)
	?allMMsAcessPoints@MsgSettingEngine@@QAEXAAVQStringList@@AAH@Z @ 5 NONAME ; void MsgSettingEngine::allMMsAcessPoints(class QStringList &, int &)
	?staticMetaObject@MsgSettingEngine@@2UQMetaObject@@B @ 6 NONAME ; struct QMetaObject const MsgSettingEngine::staticMetaObject
	?editSmsMessageCenter@MsgSettingEngine@@QAEXAAVQString@@0H@Z @ 7 NONAME ; void MsgSettingEngine::editSmsMessageCenter(class QString &, class QString &, int)
	?setReceiveMMSAdverts@MsgSettingEngine@@QAEX_N@Z @ 8 NONAME ; void MsgSettingEngine::setReceiveMMSAdverts(bool)
	?tr@MsgSettingEngine@@SA?AVQString@@PBD0H@Z @ 9 NONAME ; class QString MsgSettingEngine::tr(char const *, char const *, int)
	??1MsgSettingEngine@@UAE@XZ @ 10 NONAME ; MsgSettingEngine::~MsgSettingEngine(void)
	??_EMsgSettingEngine@@UAE@I@Z @ 11 NONAME ; MsgSettingEngine::~MsgSettingEngine(unsigned int)
	?advanceMmsSettings@MsgSettingEngine@@QAEXAAW4MmsCreationMode@1@AAW4MmsRetrieval@1@AA_N2@Z @ 12 NONAME ; void MsgSettingEngine::advanceMmsSettings(enum MsgSettingEngine::MmsCreationMode &, enum MsgSettingEngine::MmsRetrieval &, bool &, bool &)
	?smsCenterNameAndNumber@MsgSettingEngine@@QAEXHAAVQString@@0@Z @ 13 NONAME ; void MsgSettingEngine::smsCenterNameAndNumber(int, class QString &, class QString &)
	?setSMSMessageCenter@MsgSettingEngine@@QAEXH@Z @ 14 NONAME ; void MsgSettingEngine::setSMSMessageCenter(int)
	?settingsDeliverReportAndCharEncoding@MsgSettingEngine@@QAEXAA_NAAW4CharacterEncoding@1@@Z @ 15 NONAME ; void MsgSettingEngine::settingsDeliverReportAndCharEncoding(bool &, enum MsgSettingEngine::CharacterEncoding &)
	?setMMSRetrieval@MsgSettingEngine@@QAEXW4MmsRetrieval@1@@Z @ 16 NONAME ; void MsgSettingEngine::setMMSRetrieval(enum MsgSettingEngine::MmsRetrieval)
	?qt_metacast@MsgSettingEngine@@UAEPAXPBD@Z @ 17 NONAME ; void * MsgSettingEngine::qt_metacast(char const *)
	?setAnonymousMessages@MsgSettingEngine@@QAEX_N@Z @ 18 NONAME ; void MsgSettingEngine::setAnonymousMessages(bool)
	?setCharacterEncoding@MsgSettingEngine@@QAEXW4CharacterEncoding@1@@Z @ 19 NONAME ; void MsgSettingEngine::setCharacterEncoding(enum MsgSettingEngine::CharacterEncoding)
	?trUtf8@MsgSettingEngine@@SA?AVQString@@PBD0H@Z @ 20 NONAME ; class QString MsgSettingEngine::trUtf8(char const *, char const *, int)
	?qt_metacall@MsgSettingEngine@@UAEHW4Call@QMetaObject@@HPAPAX@Z @ 21 NONAME ; int MsgSettingEngine::qt_metacall(enum QMetaObject::Call, int, void * *)
	?setEmailSeriveCenterNumber@MsgSettingEngine@@QAEXAAVQString@@@Z @ 22 NONAME ; void MsgSettingEngine::setEmailSeriveCenterNumber(class QString &)
	?tr@MsgSettingEngine@@SA?AVQString@@PBD0@Z @ 23 NONAME ; class QString MsgSettingEngine::tr(char const *, char const *)
	?setMMSCreationmode@MsgSettingEngine@@QAEXW4MmsCreationMode@1@@Z @ 24 NONAME ; void MsgSettingEngine::setMMSCreationmode(enum MsgSettingEngine::MmsCreationMode)
	??0MsgSettingEngine@@QAE@XZ @ 25 NONAME ; MsgSettingEngine::MsgSettingEngine(void)
	?getStaticMetaObject@MsgSettingEngine@@SAABUQMetaObject@@XZ @ 26 NONAME ; struct QMetaObject const & MsgSettingEngine::getStaticMetaObject(void)
	?metaObject@MsgSettingEngine@@UBEPBUQMetaObject@@XZ @ 27 NONAME ; struct QMetaObject const * MsgSettingEngine::metaObject(void) const
	?setEmailGateway@MsgSettingEngine@@QAEXAAVQString@@@Z @ 28 NONAME ; void MsgSettingEngine::setEmailGateway(class QString &)
	?trUtf8@MsgSettingEngine@@SA?AVQString@@PBD0@Z @ 29 NONAME ; class QString MsgSettingEngine::trUtf8(char const *, char const *)
	?addSmsMessageCenter@MsgSettingEngine@@QAEXAAVQString@@0@Z @ 30 NONAME ; void MsgSettingEngine::addSmsMessageCenter(class QString &, class QString &)

