EXPORTS
	??0CSmilTransitionFilter@@IAE@XZ @ 1 NONAME ; CSmilTransitionFilter::CSmilTransitionFilter(void)
	??0TSmilTime@@QAE@ABVTDesC16@@@Z @ 2 NONAME ; TSmilTime::TSmilTime(class TDesC16 const &)
	??0TSmilTime@@QAE@H@Z @ 3 NONAME ; TSmilTime::TSmilTime(int)
	??0TSmilTime@@QAE@XZ @ 4 NONAME ; TSmilTime::TSmilTime(void)
	??1CSmilTransitionFilter@@UAE@XZ @ 5 NONAME ; CSmilTransitionFilter::~CSmilTransitionFilter(void)
	??4TSmilTime@@QAEAAV0@ABV0@@Z @ 6 NONAME ; class TSmilTime & TSmilTime::operator=(class TSmilTime const &)
	??4TSmilTime@@QAEAAV0@H@Z @ 7 NONAME ; class TSmilTime & TSmilTime::operator=(int)
	??8TSmilTime@@QBEHABV0@@Z @ 8 NONAME ; int TSmilTime::operator==(class TSmilTime const &) const
	??9TSmilTime@@QBEHABV0@@Z @ 9 NONAME ; int TSmilTime::operator!=(class TSmilTime const &) const
	??DTSmilTime@@QBE?AV0@ABV0@@Z @ 10 NONAME ; class TSmilTime TSmilTime::operator*(class TSmilTime const &) const
	??DTSmilTime@@QBE?AV0@M@Z @ 11 NONAME ; class TSmilTime TSmilTime::operator*(float) const
	??ETSmilTime@@QAEABV0@H@Z @ 12 NONAME ; class TSmilTime const & TSmilTime::operator++(int)
	??GTSmilTime@@QBE?AV0@ABV0@@Z @ 13 NONAME ; class TSmilTime TSmilTime::operator-(class TSmilTime const &) const
	??HTSmilTime@@QBE?AV0@ABV0@@Z @ 14 NONAME ; class TSmilTime TSmilTime::operator+(class TSmilTime const &) const
	??MTSmilTime@@QBEHABV0@@Z @ 15 NONAME ; int TSmilTime::operator<(class TSmilTime const &) const
	??NTSmilTime@@QBEHABV0@@Z @ 16 NONAME ; int TSmilTime::operator<=(class TSmilTime const &) const
	??OTSmilTime@@QBEHABV0@@Z @ 17 NONAME ; int TSmilTime::operator>(class TSmilTime const &) const
	??PTSmilTime@@QBEHABV0@@Z @ 18 NONAME ; int TSmilTime::operator>=(class TSmilTime const &) const
	?ActivateFocusedL@CSmilPresentation@@QAEXXZ @ 19 NONAME ; void CSmilPresentation::ActivateFocusedL(void)
	?ActivateL@CSmilTransitionFilter@@UAEXABVTSmilTime@@@Z @ 20 NONAME ; void CSmilTransitionFilter::ActivateL(class TSmilTime const &)
	?Anchor@CSmilObject@@QBEPAVCSmilAnchor@@XZ @ 21 NONAME ; class CSmilAnchor * CSmilObject::Anchor(void) const
	?BaseUrl@CSmilPresentation@@QBE?AVTPtrC16@@XZ @ 22 NONAME ; class TPtrC16 CSmilPresentation::BaseUrl(void) const
	?CancelFocusL@CSmilPresentation@@QAEXXZ @ 23 NONAME ; void CSmilPresentation::CancelFocusL(void)
	?Check@CConformanceChecker@@QAEHPAVCMDXMLDocument@@W4TMmsSmilVersion@@H@Z @ 24 NONAME ; int CConformanceChecker::Check(class CMDXMLDocument *, enum TMmsSmilVersion, int)
	?ConstructL@CSmilTransitionFilter@@UAEXPAVMSmilMedia@@@Z @ 25 NONAME ; void CSmilTransitionFilter::ConstructL(class MSmilMedia *)
	?CurrentSlide@CSmilPresentation@@QBEHXZ @ 26 NONAME ; int CSmilPresentation::CurrentSlide(void) const
	?CurrentTime@CSmilPresentation@@QAE?AVTSmilTime@@XZ @ 27 NONAME ; class TSmilTime CSmilPresentation::CurrentTime(void)
	?Draw@CSmilPresentation@@QAEXAAVCGraphicsContext@@ABVTRect@@@Z @ 28 NONAME ; void CSmilPresentation::Draw(class CGraphicsContext &, class TRect const &)
	?Duration@CSmilPresentation@@QBE?AVTSmilTime@@XZ @ 29 NONAME ; class TSmilTime CSmilPresentation::Duration(void) const
	?FocusedObject@CSmilPresentation@@QBEPAVCSmilObject@@XZ @ 30 NONAME ; class CSmilObject * CSmilPresentation::FocusedObject(void) const
	?FromMicroSeconds@TSmilTime@@SA?AV1@H@Z @ 31 NONAME ; class TSmilTime TSmilTime::FromMicroSeconds(int)
	?FromMicroSeconds@TSmilTime@@SA?AV1@VTTimeIntervalMicroSeconds@@@Z @ 32 NONAME ; class TSmilTime TSmilTime::FromMicroSeconds(class TTimeIntervalMicroSeconds)
	?GetScalingFactor@CSmilPresentation@@QAEMXZ @ 33 NONAME ; float CSmilPresentation::GetScalingFactor(void)
	?HandleKeyEventL@CSmilPresentation@@QAE?AW4TKeyResponse@@ABUTKeyEvent@@W4TEventCode@@@Z @ 34 NONAME ; enum TKeyResponse CSmilPresentation::HandleKeyEventL(struct TKeyEvent const &, enum TEventCode)
	?HandlePointerEventL@CSmilPresentation@@QAEXABUTPointerEvent@@@Z @ 35 NONAME ; void CSmilPresentation::HandlePointerEventL(struct TPointerEvent const &)
	?Href@CSmilAnchor@@QBE?AVTPtrC16@@XZ @ 36 NONAME ; class TPtrC16 CSmilAnchor::Href(void) const
	?IsInteractive@CSmilPresentation@@QBEHXZ @ 37 NONAME ; int CSmilPresentation::IsInteractive(void) const
	?IsTransparent@CSmilPresentation@@QBEHXZ @ 38 NONAME ; int CSmilPresentation::IsTransparent(void) const
	?Media@CSmilTransitionFilter@@QBEPAVMSmilMedia@@XZ @ 39 NONAME ; class MSmilMedia * CSmilTransitionFilter::Media(void) const
	?MouseClickedL@CSmilPresentation@@QAEXABVTPoint@@@Z @ 40 NONAME ; void CSmilPresentation::MouseClickedL(class TPoint const &)
	?MoveFocusL@CSmilPresentation@@QAEXHH@Z @ 41 NONAME ; void CSmilPresentation::MoveFocusL(int, int)
	?NewL@CConformanceChecker@@SAPAV1@XZ @ 42 NONAME ; class CConformanceChecker * CConformanceChecker::NewL(void)
	?NewL@CSmilParser@@SAPAV1@PAVMSmilPlayer@@@Z @ 43 NONAME ; class CSmilParser * CSmilParser::NewL(class MSmilPlayer *)
	?NewL@CSmilPresentation@@SAPAV1@PAVMSmilPlayer@@@Z @ 44 NONAME ; class CSmilPresentation * CSmilPresentation::NewL(class MSmilPlayer *)
	?NextSlideL@CSmilPresentation@@QAEHXZ @ 45 NONAME ; int CSmilPresentation::NextSlideL(void)
	?ParseColor@CSmilParser@@SA?AVTRgb@@ABVTDesC16@@AAH@Z @ 46 NONAME ; class TRgb CSmilParser::ParseColor(class TDesC16 const &, int &)
	?ParseL@CSmilParser@@QAEPAVCSmilPresentation@@ABVTDesC16@@0@Z @ 47 NONAME ; class CSmilPresentation * CSmilParser::ParseL(class TDesC16 const &, class TDesC16 const &)
	?ParseL@CSmilParser@@QAEPAVCSmilPresentation@@PBVCMDXMLDocument@@ABVTDesC16@@@Z @ 48 NONAME ; class CSmilPresentation * CSmilParser::ParseL(class CMDXMLDocument const *, class TDesC16 const &)
	?Pause@CSmilPresentation@@QAEXXZ @ 49 NONAME ; void CSmilPresentation::Pause(void)
	?PlayL@CSmilPresentation@@QAEXXZ @ 50 NONAME ; void CSmilPresentation::PlayL(void)
	?PreviousSlideL@CSmilPresentation@@QAEHXZ @ 51 NONAME ; int CSmilPresentation::PreviousSlideL(void)
	?Resume@CSmilPresentation@@QAEXXZ @ 52 NONAME ; void CSmilPresentation::Resume(void)
	?SeekL@CSmilPresentation@@QAEHVTSmilTime@@@Z @ 53 NONAME ; int CSmilPresentation::SeekL(class TSmilTime)
	?SetBaseUrlL@CSmilPresentation@@QAEXABVTDesC16@@@Z @ 54 NONAME ; void CSmilPresentation::SetBaseUrlL(class TDesC16 const &)
	?SetMaxDownUpScaling@CSmilParser@@QAEXMM@Z @ 55 NONAME ; void CSmilParser::SetMaxDownUpScaling(float, float)
	?SetVolume@CSmilPresentation@@QAEXH@Z @ 56 NONAME ; void CSmilPresentation::SetVolume(int)
	?SlideCount@CSmilPresentation@@QBEHXZ @ 57 NONAME ; int CSmilPresentation::SlideCount(void) const
	?State@CSmilPresentation@@QAE?AW4TPresentationState@1@XZ @ 58 NONAME ; enum CSmilPresentation::TPresentationState CSmilPresentation::State(void)
	?StopL@CSmilPresentation@@QAEXXZ @ 59 NONAME ; void CSmilPresentation::StopL(void)
	?SubmitEventL@CSmilPresentation@@QAEXABVTDesC16@@0@Z @ 60 NONAME ; void CSmilPresentation::SubmitEventL(class TDesC16 const &, class TDesC16 const &)
	?SubmitEventL@CSmilPresentation@@QAEXABVTDesC16@@PAVCSmilObject@@@Z @ 61 NONAME ; void CSmilPresentation::SubmitEventL(class TDesC16 const &, class CSmilObject *)
	?ToLocal@TSmilTime@@SA?AV1@PAVCSmilObject@@V1@@Z @ 62 NONAME ; class TSmilTime TSmilTime::ToLocal(class CSmilObject *, class TSmilTime)
	?ToMicroSeconds@TSmilTime@@QBE?AVTTimeIntervalMicroSeconds@@XZ @ 63 NONAME ; class TTimeIntervalMicroSeconds TSmilTime::ToMicroSeconds(void) const
	?TransitionEnding@CSmilTransitionFilter@@MAEXXZ @ 64 NONAME ; void CSmilTransitionFilter::TransitionEnding(void)
	?TransitionStartingL@CSmilTransitionFilter@@MAEXXZ @ 65 NONAME ; void CSmilTransitionFilter::TransitionStartingL(void)
	?RootRegionRect@CSmilPresentation@@QBE?AVTRect@@XZ @ 66 NONAME ; class TRect CSmilPresentation::RootRegionRect(void) const

