EXPORTS
	_ZN19ConversationsEngine11qt_metacallEN11QMetaObject4CallEiPPv @ 1 NONAME
	_ZN19ConversationsEngine11qt_metacastEPKc @ 2 NONAME
	_ZN19ConversationsEngine13resendMessageEi @ 3 NONAME
	_ZN19ConversationsEngine14deleteMessagesER5QListIiE @ 4 NONAME
	_ZN19ConversationsEngine14getDraftsModelEv @ 5 NONAME
	_ZN19ConversationsEngine15downloadMessageEi @ 6 NONAME
	_ZN19ConversationsEngine16getConversationsEx @ 7 NONAME
	_ZN19ConversationsEngine16markMessagesReadER5QListIiE @ 8 NONAME
	_ZN19ConversationsEngine16staticMetaObjectE @ 9 NONAME DATA 16
	_ZN19ConversationsEngine17getContactDetailsExR7QStringS1_ @ 10 NONAME
	_ZN19ConversationsEngine18clearConversationsEv @ 11 NONAME
	_ZN19ConversationsEngine19deleteConversationsEx @ 12 NONAME
	_ZN19ConversationsEngine19getStaticMetaObjectEv @ 13 NONAME
	_ZN19ConversationsEngine20markAsReadAndGetTypeEiRiS0_ @ 14 NONAME
	_ZN19ConversationsEngine20markConversationReadEx @ 15 NONAME
	_ZN19ConversationsEngine21getConversationsModelEv @ 16 NONAME
	_ZN19ConversationsEngine22deleteAllDraftMessagesEv @ 17 NONAME
	_ZN19ConversationsEngine22fetchMoreConversationsEv @ 18 NONAME
	_ZN19ConversationsEngine24conversationModelUpdatedEv @ 19 NONAME
	_ZN19ConversationsEngine24getCurrentConversationIdEv @ 20 NONAME
	_ZN19ConversationsEngine26conversationModelPopulatedEv @ 21 NONAME
	_ZN19ConversationsEngine26downloadOperationSupportedEi @ 22 NONAME
	_ZN19ConversationsEngine28emitConversationModelUpdatedEv @ 23 NONAME
	_ZN19ConversationsEngine28getConversationIdFromAddressE7QString @ 24 NONAME
	_ZN19ConversationsEngine28getConversationsSummaryModelEv @ 25 NONAME
	_ZN19ConversationsEngine30conversationListModelPopulatedEv @ 26 NONAME
	_ZN19ConversationsEngine30emitConversationModelPopulatedEv @ 27 NONAME
	_ZN19ConversationsEngine30getConversationIdFromContactIdEi @ 28 NONAME
	_ZN19ConversationsEngine34emitConversationListModelPopulatedEv @ 29 NONAME
	_ZN19ConversationsEngine8instanceEv @ 30 NONAME
	_ZN19ConversationsEngineC1EP7QObject @ 31 NONAME
	_ZN19ConversationsEngineC2EP7QObject @ 32 NONAME
	_ZN19ConversationsEngineD0Ev @ 33 NONAME
	_ZN19ConversationsEngineD1Ev @ 34 NONAME
	_ZN19ConversationsEngineD2Ev @ 35 NONAME
	_ZNK19ConversationsEngine10metaObjectEv @ 36 NONAME
	_ZTI19ConversationsEngine @ 37 NONAME
	_ZTV19ConversationsEngine @ 38 NONAME

