EXPORTS
	_ZN23MsgConversationBaseView10hideChromeEb @ 1 NONAME
	_ZN23MsgConversationBaseView11handleErrorEiRK7QString @ 2 NONAME
	_ZN23MsgConversationBaseView11qt_metacallEN11QMetaObject4CallEiPPv @ 3 NONAME
	_ZN23MsgConversationBaseView11qt_metacastEPKc @ 4 NONAME
	_ZN23MsgConversationBaseView12clearContentEv @ 5 NONAME
	_ZN23MsgConversationBaseView14conversationIdEv @ 6 NONAME
	_ZN23MsgConversationBaseView15handleViewReadyEv @ 7 NONAME
	_ZN23MsgConversationBaseView16openConversationEx @ 8 NONAME
	_ZN23MsgConversationBaseView16staticMetaObjectE @ 9 NONAME DATA 16
	_ZN23MsgConversationBaseView18markMessagesAsReadEv @ 10 NONAME
	_ZN23MsgConversationBaseView19getStaticMetaObjectEv @ 11 NONAME
	_ZN23MsgConversationBaseView19saveContentToDraftsEv @ 12 NONAME
	_ZN23MsgConversationBaseView21closeConversationViewEv @ 13 NONAME
	_ZN23MsgConversationBaseView21doDelayedConstructionEv @ 14 NONAME
	_ZN23MsgConversationBaseView22conversationViewClosedEv @ 15 NONAME
	_ZN23MsgConversationBaseView8handleOkERK8QVariant @ 16 NONAME
	_ZN23MsgConversationBaseView8initViewEv @ 17 NONAME
	_ZN23MsgConversationBaseView9setPSCVIdEb @ 18 NONAME
	_ZN23MsgConversationBaseViewC1EP13QGraphicsItem @ 19 NONAME
	_ZN23MsgConversationBaseViewC2EP13QGraphicsItem @ 20 NONAME
	_ZN23MsgConversationBaseViewD0Ev @ 21 NONAME
	_ZN23MsgConversationBaseViewD1Ev @ 22 NONAME
	_ZN23MsgConversationBaseViewD2Ev @ 23 NONAME
	_ZNK23MsgConversationBaseView10metaObjectEv @ 24 NONAME
	_ZTI23MsgConversationBaseView @ 25 NONAME
	_ZTV23MsgConversationBaseView @ 26 NONAME
	_ZThn16_N23MsgConversationBaseViewD0Ev @ 27 NONAME
	_ZThn16_N23MsgConversationBaseViewD1Ev @ 28 NONAME
	_ZThn8_N23MsgConversationBaseViewD0Ev @ 29 NONAME
	_ZThn8_N23MsgConversationBaseViewD1Ev @ 30 NONAME

