EXPORTS
	_ZN13UnifiedViewer11qt_metacallEN11QMetaObject4CallEiPPv @ 1 NONAME
	_ZN13UnifiedViewer11qt_metacastEPKc @ 2 NONAME
	_ZN13UnifiedViewer11resizeEventEP25QGraphicsSceneResizeEvent @ 3 NONAME
	_ZN13UnifiedViewer11sendMessageERK7QString @ 4 NONAME
	_ZN13UnifiedViewer12clearContentEv @ 5 NONAME
	_ZN13UnifiedViewer13createToolBarEv @ 6 NONAME
	_ZN13UnifiedViewer15handleFwdActionEv @ 7 NONAME
	_ZN13UnifiedViewer15populateContentEibi @ 8 NONAME
	_ZN13UnifiedViewer16staticMetaObjectE @ 9 NONAME DATA 16
	_ZN13UnifiedViewer18handleDeleteActionEv @ 10 NONAME
	_ZN13UnifiedViewer19getStaticMetaObjectEv @ 11 NONAME
	_ZN13UnifiedViewer21validateMsgForForwardEv @ 12 NONAME
	_ZN13UnifiedViewerC1EiP13QGraphicsItem @ 13 NONAME
	_ZN13UnifiedViewerC2EiP13QGraphicsItem @ 14 NONAME
	_ZN13UnifiedViewerD0Ev @ 15 NONAME
	_ZN13UnifiedViewerD1Ev @ 16 NONAME
	_ZN13UnifiedViewerD2Ev @ 17 NONAME
	_ZNK13UnifiedViewer10metaObjectEv @ 18 NONAME
	_ZTI13UnifiedViewer @ 19 NONAME
	_ZTV13UnifiedViewer @ 20 NONAME
	_ZThn16_N13UnifiedViewerD0Ev @ 21 NONAME
	_ZThn16_N13UnifiedViewerD1Ev @ 22 NONAME
	_ZThn8_N13UnifiedViewerD0Ev @ 23 NONAME
	_ZThn8_N13UnifiedViewerD1Ev @ 24 NONAME

