EXPORTS
	?staticMetaObject@TestMsgSettingEngine@@2UQMetaObject@@B @ 1 NONAME ; struct QMetaObject const TestMsgSettingEngine::staticMetaObject
	?TestsettingsDeliverReportAndCharEncoding@TestMsgSettingEngine@@AAEXXZ @ 2 NONAME ; void TestMsgSettingEngine::TestsettingsDeliverReportAndCharEncoding(void)
	?TestaddSmsMessageCenter@TestMsgSettingEngine@@AAEXXZ @ 3 NONAME ; void TestMsgSettingEngine::TestaddSmsMessageCenter(void)
	?tr@TestMsgSettingEngine@@SA?AVQString@@PBD0H@Z @ 4 NONAME ; class QString TestMsgSettingEngine::tr(char const *, char const *, int)
	?TestsetAnonymousMessages@TestMsgSettingEngine@@AAEXXZ @ 5 NONAME ; void TestMsgSettingEngine::TestsetAnonymousMessages(void)
	?TestallSMSMessageCenter@TestMsgSettingEngine@@AAEXXZ @ 6 NONAME ; void TestMsgSettingEngine::TestallSMSMessageCenter(void)
	?TestsetReceiveMMSAdverts@TestMsgSettingEngine@@AAEXXZ @ 7 NONAME ; void TestMsgSettingEngine::TestsetReceiveMMSAdverts(void)
	?TestsetEmailSeriveCenterNumber@TestMsgSettingEngine@@AAEXXZ @ 8 NONAME ; void TestMsgSettingEngine::TestsetEmailSeriveCenterNumber(void)
	?TestsetMMSCreationmode@TestMsgSettingEngine@@AAEXXZ @ 9 NONAME ; void TestMsgSettingEngine::TestsetMMSCreationmode(void)
	?TestemailEmailGatewayAndServiceCenterNumber@TestMsgSettingEngine@@AAEXXZ @ 10 NONAME ; void TestMsgSettingEngine::TestemailEmailGatewayAndServiceCenterNumber(void)
	?trUtf8@TestMsgSettingEngine@@SA?AVQString@@PBD0H@Z @ 11 NONAME ; class QString TestMsgSettingEngine::trUtf8(char const *, char const *, int)
	?TestallMMsAcessPoints@TestMsgSettingEngine@@AAEXXZ @ 12 NONAME ; void TestMsgSettingEngine::TestallMMsAcessPoints(void)
	?qt_metacast@TestMsgSettingEngine@@UAEPAXPBD@Z @ 13 NONAME ; void * TestMsgSettingEngine::qt_metacast(char const *)
	?TestsmsCenterNameAndNumber@TestMsgSettingEngine@@AAEXXZ @ 14 NONAME ; void TestMsgSettingEngine::TestsmsCenterNameAndNumber(void)
	?TestvalidityPeriod@TestMsgSettingEngine@@AAEXXZ @ 15 NONAME ; void TestMsgSettingEngine::TestvalidityPeriod(void)
	?TestsetDeliveryReport@TestMsgSettingEngine@@AAEXXZ @ 16 NONAME ; void TestMsgSettingEngine::TestsetDeliveryReport(void)
	?TestsetSMSMessageCenter@TestMsgSettingEngine@@AAEXXZ @ 17 NONAME ; void TestMsgSettingEngine::TestsetSMSMessageCenter(void)
	?TestsetValidityPeriod@TestMsgSettingEngine@@AAEXXZ @ 18 NONAME ; void TestMsgSettingEngine::TestsetValidityPeriod(void)
	?TestsetMMSAccesspoint@TestMsgSettingEngine@@AAEXXZ @ 19 NONAME ; void TestMsgSettingEngine::TestsetMMSAccesspoint(void)
	?trUtf8@TestMsgSettingEngine@@SA?AVQString@@PBD0@Z @ 20 NONAME ; class QString TestMsgSettingEngine::trUtf8(char const *, char const *)
	?tr@TestMsgSettingEngine@@SA?AVQString@@PBD0@Z @ 21 NONAME ; class QString TestMsgSettingEngine::tr(char const *, char const *)
	?TestsetCharacterEncoding@TestMsgSettingEngine@@AAEXXZ @ 22 NONAME ; void TestMsgSettingEngine::TestsetCharacterEncoding(void)
	?metaObject@TestMsgSettingEngine@@UBEPBUQMetaObject@@XZ @ 23 NONAME ; struct QMetaObject const * TestMsgSettingEngine::metaObject(void) const
	?getStaticMetaObject@TestMsgSettingEngine@@SAABUQMetaObject@@XZ @ 24 NONAME ; struct QMetaObject const & TestMsgSettingEngine::getStaticMetaObject(void)
	?cleanupTestCase@TestMsgSettingEngine@@AAEXXZ @ 25 NONAME ; void TestMsgSettingEngine::cleanupTestCase(void)
	?qt_metacall@TestMsgSettingEngine@@UAEHW4Call@QMetaObject@@HPAPAX@Z @ 26 NONAME ; int TestMsgSettingEngine::qt_metacall(enum QMetaObject::Call, int, void * *)
	?TesteditSmsMessageCenter@TestMsgSettingEngine@@AAEXXZ @ 27 NONAME ; void TestMsgSettingEngine::TesteditSmsMessageCenter(void)
	?TestadvanceMmsSettings@TestMsgSettingEngine@@AAEXXZ @ 28 NONAME ; void TestMsgSettingEngine::TestadvanceMmsSettings(void)
	?TestsetEmailGateway@TestMsgSettingEngine@@AAEXXZ @ 29 NONAME ; void TestMsgSettingEngine::TestsetEmailGateway(void)
	?TestsetMMSRetrieval@TestMsgSettingEngine@@AAEXXZ @ 30 NONAME ; void TestMsgSettingEngine::TestsetMMSRetrieval(void)
	?initTestCase@TestMsgSettingEngine@@AAEXXZ @ 31 NONAME ; void TestMsgSettingEngine::initTestCase(void)

