EXPORTS
	??0CMsgEditorServerWatchingOperation@@QAE@AAVCMsvSession@@HAAVTRequestStatus@@VTUid@@@Z @ 1 NONAME ; CMsgEditorServerWatchingOperation::CMsgEditorServerWatchingOperation(class CMsvSession &, int, class TRequestStatus &, class TUid)
	??0CMsgEditorWatchingOperation@@QAE@AAVCMsvSession@@HAAVTRequestStatus@@VTUid@@@Z @ 2 NONAME ABSENT ; CMsgEditorWatchingOperation::CMsgEditorWatchingOperation(class CMsvSession &, int, class TRequestStatus &, class TUid)
	??0CMuiuMsgEditorServiceSession@@QAE@XZ @ 3 NONAME ; CMuiuMsgEditorServiceSession::CMuiuMsgEditorServiceSession(void)
	??0CUidNameArray@@QAE@H@Z @ 4 NONAME ; CUidNameArray::CUidNameArray(int)
	??MUIU_ABSENT5 @ 5 NONAME ABSENT
	??0TUidNameInfo@@QAE@VTUid@@ABVTDesC16@@@Z @ 6 NONAME ; TUidNameInfo::TUidNameInfo(class TUid, class TDesC16 const &)
	??0TUidNameKey@@QAE@W4TKeyCmpText@@@Z @ 7 NONAME ; TUidNameKey::TUidNameKey(enum TKeyCmpText)
	??1CMessageIterator@@UAE@XZ @ 8 NONAME ; CMessageIterator::~CMessageIterator(void)
	??1CMsgEditorServerWatchingOperation@@UAE@XZ @ 9 NONAME ; CMsgEditorServerWatchingOperation::~CMsgEditorServerWatchingOperation(void)
	??1CMsgEditorWatchingOperation@@UAE@XZ @ 10 NONAME ABSENT ; CMsgEditorWatchingOperation::~CMsgEditorWatchingOperation(void)
	??1CMsvProgressReporterOperation@@UAE@XZ @ 11 NONAME ; CMsvProgressReporterOperation::~CMsvProgressReporterOperation(void)
	??1CMsvSingleOpWatcher@@UAE@XZ @ 12 NONAME ; CMsvSingleOpWatcher::~CMsvSingleOpWatcher(void)
	??1CMtmStore@@UAE@XZ @ 13 NONAME ; CMtmStore::~CMtmStore(void)
	??1CMuiuOperationWait@@UAE@XZ @ 14 NONAME ; CMuiuOperationWait::~CMuiuOperationWait(void)
	??1CUidNameArray@@UAE@XZ @ 15 NONAME ; CUidNameArray::~CUidNameArray(void)
	?CallToSenderQueryL@MsvUiServiceUtilities@@SAHABVTDesC16@@0H@Z @ 16 NONAME ; int MsvUiServiceUtilities::CallToSenderQueryL(class TDesC16 const &, class TDesC16 const &, int)
	?ClaimMtmUiAndSetContextL@CMtmStore@@QAEAAVCBaseMtmUi@@ABVTMsvEntry@@@Z @ 17 NONAME ; class CBaseMtmUi & CMtmStore::ClaimMtmUiAndSetContextL(class TMsvEntry const &)
	?ClaimMtmUiL@CMtmStore@@QAEAAVCBaseMtmUi@@VTUid@@@Z @ 18 NONAME ; class CBaseMtmUi & CMtmStore::ClaimMtmUiL(class TUid)
	?CleanupReleaseMtmUiLC@CMtmStoreMtmReleaser@@SAXAAVCMtmStore@@VTUid@@@Z @ 19 NONAME ; void CMtmStoreMtmReleaser::CleanupReleaseMtmUiLC(class CMtmStore &, class TUid)
	?CurrentMessage@CMessageIterator@@QBEABVTMsvEntry@@XZ @ 20 NONAME ; class TMsvEntry const & CMessageIterator::CurrentMessage(void) const
	?CurrentMessageIndex@CMessageIterator@@QBEHXZ @ 21 NONAME ; int CMessageIterator::CurrentMessageIndex(void) const
	?CurrentParent@CMessageIterator@@QBEABVTMsvEntry@@XZ @ 22 NONAME ; class TMsvEntry const & CMessageIterator::CurrentParent(void) const
	?DefaultServiceForMTML@MsvUiServiceUtilities@@SAJAAVCMsvSession@@VTUid@@H@Z @ 23 NONAME ; long MsvUiServiceUtilities::DefaultServiceForMTML(class CMsvSession &, class TUid, int)
	?DiskSpaceBelowCriticalLevelL@MsvUiServiceUtilities@@SAHAAVCMsvSession@@H@Z @ 24 NONAME ; int MsvUiServiceUtilities::DiskSpaceBelowCriticalLevelL(class CMsvSession &, int)
	?DiskSpaceBelowCriticalLevelWithOverheadL@MsvUiServiceUtilities@@SAHAAVCMsvSession@@HH@Z @ 25 NONAME ; int MsvUiServiceUtilities::DiskSpaceBelowCriticalLevelWithOverheadL(class CMsvSession &, int, int)
	?ExecuteLD@CMsgInfoMessageInfoDialog@@QAEXAAUTMsgInfoMessageInfoData@@W4TMessageInfoType@1@@Z @ 26 NONAME ; void CMsgInfoMessageInfoDialog::ExecuteLD(struct TMsgInfoMessageInfoData &, enum CMsgInfoMessageInfoDialog::TMessageInfoType)
	?GetListOfAccountsL@MsvUiServiceUtilities@@SAPAVCMsvEntrySelection@@AAVCMsvSession@@H@Z @ 27 NONAME ; class CMsvEntrySelection * MsvUiServiceUtilities::GetListOfAccountsL(class CMsvSession &, int)
	?GetListOfAccountsWithMTML@MsvUiServiceUtilities@@SAPAVCMsvEntrySelection@@AAVCMsvSession@@VTUid@@H@Z @ 28 NONAME ; class CMsvEntrySelection * MsvUiServiceUtilities::GetListOfAccountsWithMTML(class CMsvSession &, class TUid, int)
	?GetMtmUiAndSetContextLC@CMtmStore@@QAEAAVCBaseMtmUi@@ABVTMsvEntry@@@Z @ 29 NONAME ; class CBaseMtmUi & CMtmStore::GetMtmUiAndSetContextLC(class TMsvEntry const &)
	?GetMtmUiLC@CMtmStore@@QAEAAVCBaseMtmUi@@VTUid@@@Z @ 30 NONAME ; class CBaseMtmUi & CMtmStore::GetMtmUiLC(class TUid)
	?InternetCallToSenderQueryL@MsvUiServiceUtilities@@SAHABVTDesC16@@0H@Z @ 31 NONAME ; int MsvUiServiceUtilities::InternetCallToSenderQueryL(class TDesC16 const &, class TDesC16 const &, int)
	?IsValidDomainL@MsvUiServiceUtilities@@SAHABVTDesC16@@@Z @ 32 NONAME ; int MsvUiServiceUtilities::IsValidDomainL(class TDesC16 const &)
	?IsValidEmailAddressL@MsvUiServiceUtilities@@SAHABVTDesC16@@@Z @ 33 NONAME ; int MsvUiServiceUtilities::IsValidEmailAddressL(class TDesC16 const &)
	?LaunchEditorApplicationL@MsgEditorLauncher@@SAPAVCMsvOperation@@AAVCMsvSession@@VTUid@@AAVTRequestStatus@@ABVTEditorParameters@@ABVTDesC16@@ABVTDesC8@@PBV8@@Z @ 34 NONAME ; class CMsvOperation * MsgEditorLauncher::LaunchEditorApplicationL(class CMsvSession &, class TUid, class TRequestStatus &, class TEditorParameters const &, class TDesC16 const &, class TDesC8 const &, class TDesC8 const *)
	?LaunchEditorApplicationL@MsgEditorLauncher@@SAPAVCMsvOperation@@AAVCMsvSession@@VTUid@@AAVTRequestStatus@@ABVTEditorParameters@@ABVTDesC16@@PBVTDesC8@@@Z @ 35 NONAME ; class CMsvOperation * MsgEditorLauncher::LaunchEditorApplicationL(class CMsvSession &, class TUid, class TRequestStatus &, class TEditorParameters const &, class TDesC16 const &, class TDesC8 const *)
	?MakeProgressVisibleL@CMsvProgressReporterOperation@@UAEXH@Z @ 36 NONAME ; void CMsvProgressReporterOperation::MakeProgressVisibleL(int)
	?MdcaCount@CUidNameArray@@EBEHXZ @ 37 NONAME ; int CUidNameArray::MdcaCount(void) const
	?MdcaPoint@CUidNameArray@@EBE?AVTPtrC16@@H@Z @ 38 NONAME ; class TPtrC16 CUidNameArray::MdcaPoint(int) const
	?MessagesInFolder@CMessageIterator@@QBEHXZ @ 39 NONAME ; int CMessageIterator::MessagesInFolder(void) const
	?MtmStore@CMsvProgressReporterOperation@@UAEAAVCMtmStore@@XZ @ 40 NONAME ; class CMtmStore & CMsvProgressReporterOperation::MtmStore(void)
	?MtmUiDataL@CMtmStore@@QAEAAVCBaseMtmUiData@@VTUid@@@Z @ 41 NONAME ; class CBaseMtmUiData & CMtmStore::MtmUiDataL(class TUid)
	?NewL@CMessageIterator@@SAPAV1@AAVCMsvSession@@ABVTMsvEntry@@@Z @ 42 NONAME ; class CMessageIterator * CMessageIterator::NewL(class CMsvSession &, class TMsvEntry const &)
	?NewL@CMsgEditorServerWatchingOperation@@SAPAV1@AAVCMsvSession@@HAAVTRequestStatus@@VTUid@@VTEditorParameters@@@Z @ 43 NONAME ; class CMsgEditorServerWatchingOperation * CMsgEditorServerWatchingOperation::NewL(class CMsvSession &, int, class TRequestStatus &, class TUid, class TEditorParameters)
	?NewL@CMsgInfoMessageInfoDialog@@SAPAV1@XZ @ 44 NONAME ; class CMsgInfoMessageInfoDialog * CMsgInfoMessageInfoDialog::NewL(void)
	?NewL@CMsvProgressReporterOperation@@SAPAV1@AAVCMsvSession@@AAVTRequestStatus@@@Z @ 45 NONAME ; class CMsvProgressReporterOperation * CMsvProgressReporterOperation::NewL(class CMsvSession &, class TRequestStatus &)
	?NewL@CMsvProgressReporterOperation@@SAPAV1@AAVCMsvSession@@AAVTRequestStatus@@H@Z @ 46 NONAME ; class CMsvProgressReporterOperation * CMsvProgressReporterOperation::NewL(class CMsvSession &, class TRequestStatus &, int)
	?NewL@CMsvProgressReporterOperation@@SAPAV1@AAVCMsvSession@@AAVTRequestStatus@@HVTUid@@@Z @ 47 NONAME ; class CMsvProgressReporterOperation * CMsvProgressReporterOperation::NewL(class CMsvSession &, class TRequestStatus &, int, class TUid)
	?NewL@CMsvProgressReporterOperation@@SAPAV1@HAAVCMsvSession@@AAVTRequestStatus@@@Z @ 48 NONAME ; class CMsvProgressReporterOperation * CMsvProgressReporterOperation::NewL(int, class CMsvSession &, class TRequestStatus &)
	?NewL@CMsvProgressReporterOperation@@SAPAV1@HAAVCMsvSession@@AAVTRequestStatus@@H@Z @ 49 NONAME ; class CMsvProgressReporterOperation * CMsvProgressReporterOperation::NewL(int, class CMsvSession &, class TRequestStatus &, int)
	?NewL@CMsvProgressReporterOperation@@SAPAV1@HHAAVCMsvSession@@AAVTRequestStatus@@H@Z @ 50 NONAME ; class CMsvProgressReporterOperation * CMsvProgressReporterOperation::NewL(int, int, class CMsvSession &, class TRequestStatus &, int)
	?NewL@CMsvRemoteOperationProgress@@SAPAV1@AAVMMsvRemoteOperationProgressObserver@@H@Z @ 51 NONAME ; class CMsvRemoteOperationProgress * CMsvRemoteOperationProgress::NewL(class MMsvRemoteOperationProgressObserver &, int)
	?NewL@CMsvRemoteOperationProgress@@SAPAV1@AAVMMsvRemoteOperationProgressObserver@@HH@Z @ 52 NONAME ; class CMsvRemoteOperationProgress * CMsvRemoteOperationProgress::NewL(class MMsvRemoteOperationProgressObserver &, int, int)
	?NewL@CMsvSingleOpWatcher@@SAPAV1@AAVMMsvSingleOpWatcher@@@Z @ 53 NONAME ; class CMsvSingleOpWatcher * CMsvSingleOpWatcher::NewL(class MMsvSingleOpWatcher &)
	?NewL@CMtmStore@@SAPAV1@AAVCMsvSession@@@Z @ 54 NONAME ; class CMtmStore * CMtmStore::NewL(class CMsvSession &)
	?NewLC@CMsvSingleOpWatcher@@SAPAV1@AAVMMsvSingleOpWatcher@@@Z @ 55 NONAME ; class CMsvSingleOpWatcher * CMsvSingleOpWatcher::NewLC(class MMsvSingleOpWatcher &)
	?NewLC@CMuiuOperationWait@@SAPAV1@H@Z @ 56 NONAME ; class CMuiuOperationWait * CMuiuOperationWait::NewLC(int)
	?NextMessageExists@CMessageIterator@@QBEHXZ @ 57 NONAME ; int CMessageIterator::NextMessageExists(void) const
	?OpenCurrentMessageL@CMessageIterator@@QAEPAVCMsvOperation@@AAVTRequestStatus@@H@Z @ 58 NONAME ; class CMsvOperation * CMessageIterator::OpenCurrentMessageL(class TRequestStatus &, int)
	?Operation@CMsvSingleOpWatcher@@QBEAAVCMsvOperation@@XZ @ 59 NONAME ; class CMsvOperation & CMsvSingleOpWatcher::Operation(void) const
	?PreviousMessageExists@CMessageIterator@@QBEHXZ @ 60 NONAME ; int CMessageIterator::PreviousMessageExists(void) const
	?ProgressL@CMsvProgressReporterOperation@@UAEABVTDesC8@@XZ @ 61 NONAME ; class TDesC8 const & CMsvProgressReporterOperation::ProgressL(void)
	?ReleaseMtmUi@CMtmStore@@QAEXVTUid@@@Z @ 62 NONAME ; void CMtmStore::ReleaseMtmUi(class TUid)
	?ReleaseMtmUiData@CMtmStore@@QAEXVTUid@@@Z @ 63 NONAME ; void CMtmStore::ReleaseMtmUiData(class TUid)
	?RequestStatus@CMsvProgressReporterOperation@@QAEAAVTRequestStatus@@XZ @ 64 NONAME ; class TRequestStatus & CMsvProgressReporterOperation::RequestStatus(void)
	?ResetL@MsvFactorySettings@@SAXW4TMsvFactorySettingsLevel@@@Z @ 65 NONAME ; void MsvFactorySettings::ResetL(enum TMsvFactorySettingsLevel)
	?ResolveAppFileNameL@MsvUiEditorUtilities@@SAPAVHBufC16@@VTUid@@@Z @ 66 NONAME ; class HBufC16 * MsvUiEditorUtilities::ResolveAppFileNameL(class TUid)
	?SelectFolderL@CMsgFolderSelectionDialog@@SAHAAJAAVTDesC16@@@Z @ 67 NONAME ; int CMsgFolderSelectionDialog::SelectFolderL(long &, class TDesC16 &)
	?SetAnimationL@CMsvProgressReporterOperation@@UAEXH@Z @ 68 NONAME ; void CMsvProgressReporterOperation::SetAnimationL(int)
	?SetCanCancelL@CMsvProgressReporterOperation@@UAEXH@Z @ 69 NONAME ; void CMsvProgressReporterOperation::SetCanCancelL(int)
	?SetCurrentMessageL@CMessageIterator@@QAEXABVTMsvEntry@@@Z @ 70 NONAME ; void CMessageIterator::SetCurrentMessageL(class TMsvEntry const &)
	?SetHelpContext@CMsvProgressReporterOperation@@UAEXABVTCoeHelpContext@@@Z @ 71 NONAME ; void CMsvProgressReporterOperation::SetHelpContext(class TCoeHelpContext const &)
	?SetMessageIteratorObserver@CMessageIterator@@QAEXPAVMMessageIteratorObserver@@@Z @ 72 NONAME ; void CMessageIterator::SetMessageIteratorObserver(class MMessageIteratorObserver *)
	?SetNextMessage@CMessageIterator@@QAEHXZ @ 73 NONAME ; int CMessageIterator::SetNextMessage(void)
	?SetOperation@CMsvSingleOpWatcher@@QAEXPAVCMsvOperation@@@Z @ 74 NONAME ; void CMsvSingleOpWatcher::SetOperation(class CMsvOperation *)
	?SetOperationL@CMsvProgressReporterOperation@@QAEXPAVCMsvOperation@@@Z @ 75 NONAME ; void CMsvProgressReporterOperation::SetOperationL(class CMsvOperation *)
	?SetPreviousMessage@CMessageIterator@@QAEHXZ @ 76 NONAME ; int CMessageIterator::SetPreviousMessage(void)
	?SetProgressDecoder@CMsvProgressReporterOperation@@UAEXAAVMMsvProgressDecoder@@@Z @ 77 NONAME ; void CMsvProgressReporterOperation::SetProgressDecoder(class MMsvProgressDecoder &)
	?SetProgressPackageL@CMsgEditorWatchingOperation@@QAEXABVTDesC8@@@Z @ 78 NONAME ABSENT ; void CMsgEditorWatchingOperation::SetProgressPackageL(class TDesC8 const &)
	?SetProgressVisibilityDelay@CMsvProgressReporterOperation@@QAEXH@Z @ 79 NONAME ; void CMsvProgressReporterOperation::SetProgressVisibilityDelay(int)
	?SetSeeding@CMsvProgressReporterOperation@@QAEXH@Z @ 80 NONAME ; void CMsvProgressReporterOperation::SetSeeding(int)
	?SetTitleL@CMsvProgressReporterOperation@@UAEXABVTDesC16@@@Z @ 81 NONAME ; void CMsvProgressReporterOperation::SetTitleL(class TDesC16 const &)
	?SetTitleL@CMsvProgressReporterOperation@@UAEXH@Z @ 82 NONAME ; void CMsvProgressReporterOperation::SetTitleL(int)
	?Sort@CUidNameArray@@UAEXW4TKeyCmpText@@@Z @ 83 NONAME ; void CUidNameArray::Sort(enum TKeyCmpText)
	?Start@CMuiuOperationWait@@QAEXXZ @ 84 NONAME ; void CMuiuOperationWait::Start(void)
	?UnsetProgressDecoder@CMsvProgressReporterOperation@@UAEXXZ @ 85 NONAME ; void CMsvProgressReporterOperation::UnsetProgressDecoder(void)
	?InternetCallServiceL@MsvUiServiceUtilities@@SAHABVTDesC16@@00PAVCEikonEnv@@@Z @ 86 NONAME ; int MsvUiServiceUtilities::InternetCallServiceL(class TDesC16 const &, class TDesC16 const &, class TDesC16 const &, class CEikonEnv *)
	?PublishNewDialogL@CMsvProgressReporterOperation@@QAEXHVTUid@@@Z @ 87 NONAME ; void CMsvProgressReporterOperation::PublishNewDialogL(int, class TUid)

