EXPORTS
	??0CUniBaseHeader@@IAE@AAVCBaseMtm@@AAVCMsgEditorView@@AAVRFs@@@Z @ 1 NONAME ; CUniBaseHeader::CUniBaseHeader(class CBaseMtm &, class CMsgEditorView &, class RFs &)
	??0CUniImageProcessor@@QAE@PAVMUniImageProcessorCallback@@@Z @ 2 NONAME ; CUniImageProcessor::CUniImageProcessor(class MUniImageProcessorCallback *)
	??1CUniBaseHeader@@UAE@XZ @ 3 NONAME ; CUniBaseHeader::~CUniBaseHeader(void)
	?AddHeadersConfigL@CUniBaseHeader@@QAEHXZ @ 4 NONAME ; int CUniBaseHeader::AddHeadersConfigL(void)
	?AddHeadersVariationL@CUniBaseHeader@@IAEXH@Z @ 5 NONAME ; void CUniBaseHeader::AddHeadersVariationL(int)
	?AddRecipientL@CUniAddressHandler@@QAEHAAH@Z @ 6 NONAME ; int CUniAddressHandler::AddRecipientL(int &)
	?AddToViewL@CUniBaseHeader@@QAEXXZ @ 7 NONAME ; void CUniBaseHeader::AddToViewL(void)
	?AppendAddressesToMtmL@CUniAddressHandler@@QAEXW4TMsvRecipientTypeValues@@@Z @ 8 NONAME ; void CUniAddressHandler::AppendAddressesToMtmL(enum TMsvRecipientTypeValues)
	?CheckSingleAddressL@CUniAddressHandler@@QAEHABVTDesC16@@@Z @ 9 NONAME ; int CUniAddressHandler::CheckSingleAddressL(class TDesC16 const &)
	?CopyAddressesFromMtmL@CUniAddressHandler@@QAEXW4TMsvRecipientTypeValues@@H@Z @ 10 NONAME ; void CUniAddressHandler::CopyAddressesFromMtmL(enum TMsvRecipientTypeValues, int)
	?CopyAddressesToMtmL@CUniAddressHandler@@QAEXW4TMsvRecipientTypeValues@@@Z @ 11 NONAME ; void CUniAddressHandler::CopyAddressesToMtmL(enum TMsvRecipientTypeValues)
	?DoAddToViewL@CUniBaseHeader@@IAEXH@Z @ 12 NONAME ; void CUniBaseHeader::DoAddToViewL(int)
	?FocusedAddressField@CUniBaseHeader@@QAEHPAVCMsgBaseControl@@@Z @ 13 NONAME ; int CUniBaseHeader::FocusedAddressField(class CMsgBaseControl *)
	?HasRecipients@CUniBaseHeader@@QAEHXZ @ 14 NONAME ; int CUniBaseHeader::HasRecipients(void)
	?InsertFromL@CUniBaseHeader@@MAEXH@Z @ 15 NONAME ; void CUniBaseHeader::InsertFromL(int)
	?IsAddressControl@CUniBaseHeader@@QAEHH@Z @ 16 NONAME ; int CUniBaseHeader::IsAddressControl(int)
	?LoadObject@CUniSlideLoader@@QAEXAAVMUniSlideLoaderObserver@@PAVCUniObject@@@Z @ 17 NONAME ; void CUniSlideLoader::LoadObject(class MUniSlideLoaderObserver &, class CUniObject *)
	?LoadSlideL@CUniSlideLoader@@QAEXAAVMUniSlideLoaderObserver@@H@Z @ 18 NONAME ; void CUniSlideLoader::LoadSlideL(class MUniSlideLoaderObserver &, int)
	?MakeDetailsL@CUniAddressHandler@@QAEXAAVTDes16@@@Z @ 19 NONAME ; void CUniAddressHandler::MakeDetailsL(class TDes16 &)
	?MtmAddressTypes@CUniBaseHeader@@IAEHXZ @ 20 NONAME ; int CUniBaseHeader::MtmAddressTypes(void)
	?NewL@CUniAddressHandler@@SAPAV1@AAVCBaseMtm@@AAVCMsgAddressControl@@AAVCCoeEnv@@@Z @ 21 NONAME ; class CUniAddressHandler * CUniAddressHandler::NewL(class CBaseMtm &, class CMsgAddressControl &, class CCoeEnv &)
	?NewL@CUniObjectsModel@@SAPAVCMsgAttachmentModel@@H@Z @ 22 NONAME ; class CMsgAttachmentModel * CUniObjectsModel::NewL(int)
	?NewL@CUniSlideLoader@@SAPAV1@AAVMMsgAsyncControlObserver@@AAVCUniDataModel@@AAVCMsgEditorView@@W4TUniControlMode@@@Z @ 23 NONAME ; class CUniSlideLoader * CUniSlideLoader::NewL(class MMsgAsyncControlObserver &, class CUniDataModel &, class CMsgEditorView &, enum TUniControlMode)
	?ObjectsViewL@CUniObjectsViewDialog@@SAHW4TUniObjectsDialogType@1@AAVCUniObjectsModel@@PAVCEikonEnv@@AAW4TUniObjectsDialogExitCmd@@AAVCUniDataModel@@H@Z @ 24 NONAME ; int CUniObjectsViewDialog::ObjectsViewL(enum CUniObjectsViewDialog::TUniObjectsDialogType, class CUniObjectsModel &, class CEikonEnv *, enum TUniObjectsDialogExitCmd &, class CUniDataModel &, int)
	?ProcessImageL@CUniImageProcessor@@QAEXAAVRFile@@0AAVTSize@@ABVTDesC8@@HH@Z @ 25 NONAME ; void CUniImageProcessor::ProcessImageL(class RFile &, class RFile &, class TSize &, class TDesC8 const &, int, int)
	?RemoveAddressesFromMtmL@CUniAddressHandler@@QAEXW4TMsvRecipientTypeValues@@@Z @ 26 NONAME ; void CUniAddressHandler::RemoveAddressesFromMtmL(enum TMsvRecipientTypeValues)
	?RemoveDuplicateAddressesL@CUniAddressHandler@@SAHAAV?$CArrayPtrFlat@VCMsgAddressControl@@@@@Z @ 27 NONAME ; int CUniAddressHandler::RemoveDuplicateAddressesL(class CArrayPtrFlat<class CMsgAddressControl> &)
	?RemoveFromViewL@CUniBaseHeader@@QAEXH@Z @ 28 NONAME ; void CUniBaseHeader::RemoveFromViewL(int)
	?Reset@CUniImageProcessor@@QAEXXZ @ 29 NONAME ; void CUniImageProcessor::Reset(void)
	?ResetViewL@CUniSlideLoader@@QAEXXZ @ 30 NONAME ; void CUniSlideLoader::ResetViewL(void)
	?SaveAddHeadersConfigL@CUniBaseHeader@@QAEXH@Z @ 31 NONAME ; void CUniBaseHeader::SaveAddHeadersConfigL(int)
	?ScaleImageL@CUniImageProcessor@@QAEXAAVRFile@@AAPAVCFbsBitmap@@1AAVTSize@@H@Z @ 32 NONAME ; void CUniImageProcessor::ScaleImageL(class RFile &, class CFbsBitmap * &, class CFbsBitmap * &, class TSize &, int)
	?ScaleImageL@CUniImageProcessor@@QAEXPAVCFbsBitmap@@0H@Z @ 33 NONAME ; void CUniImageProcessor::ScaleImageL(class CFbsBitmap *, class CFbsBitmap *, int)
	?ScaleImageL@CUniImageProcessor@@QAEXPAVCFbsBitmap@@AAVRFile@@ABVTSize@@ABVTDesC8@@H@Z @ 34 NONAME ; void CUniImageProcessor::ScaleImageL(class CFbsBitmap *, class RFile &, class TSize const &, class TDesC8 const &, int)
	?ShowInvalidRecipientInfoNotesL@CUniAddressHandler@@QAEXXZ @ 35 NONAME ; void CUniAddressHandler::ShowInvalidRecipientInfoNotesL(void)
	?UpdateControlIconL@CUniSlideLoader@@QAEXAAVCMsgMediaControl@@PAVCUniObject@@@Z @ 36 NONAME ; void CUniSlideLoader::UpdateControlIconL(class CMsgMediaControl &, class CUniObject *)
	?VerifyAddressesL@CUniAddressHandler@@QAEHAAH@Z @ 37 NONAME ; int CUniAddressHandler::VerifyAddressesL(int &)
	?HandleResourceChange@CUniBaseHeader@@QAEXH@Z @ 38 NONAME ; void CUniBaseHeader::HandleResourceChange(int)
	?ReLoadControlL@CUniSlideLoader@@QAEXPAVCMsgMediaControl@@PAVCUniObject@@@Z @ 39 NONAME ; void CUniSlideLoader::ReLoadControlL(class CMsgMediaControl *, class CUniObject *)
	?NewL@CUniSlideLoader@@SAPAV1@PAVMUniObjectObserver@@AAVMMsgAsyncControlObserver@@AAVCUniDataModel@@AAVCMsgEditorView@@W4TUniControlMode@@@Z @ 40 NONAME ; class CUniSlideLoader * CUniSlideLoader::NewL(class MUniObjectObserver *, class MMsgAsyncControlObserver &, class CUniDataModel &, class CMsgEditorView &, enum TUniControlMode)

