EXPORTS
	_ZN14CUniBaseHeader10AddToViewLEv @ 1 NONAME
	_ZN14CUniBaseHeader11InsertFromLEi @ 2 NONAME
	_ZN14CUniBaseHeader12DoAddToViewLEi @ 3 NONAME
	_ZN14CUniBaseHeader13HasRecipientsEv @ 4 NONAME
	_ZN14CUniBaseHeader15MtmAddressTypesEv @ 5 NONAME
	_ZN14CUniBaseHeader15RemoveFromViewLEi @ 6 NONAME
	_ZN14CUniBaseHeader16IsAddressControlEi @ 7 NONAME
	_ZN14CUniBaseHeader17AddHeadersConfigLEv @ 8 NONAME
	_ZN14CUniBaseHeader19FocusedAddressFieldEP15CMsgBaseControl @ 9 NONAME
	_ZN14CUniBaseHeader20AddHeadersVariationLEi @ 10 NONAME
	_ZN14CUniBaseHeader21SaveAddHeadersConfigLEi @ 11 NONAME
	_ZN14CUniBaseHeaderC2ER8CBaseMtmR14CMsgEditorViewR3RFs @ 12 NONAME
	_ZN14CUniBaseHeaderD0Ev @ 13 NONAME
	_ZN14CUniBaseHeaderD1Ev @ 14 NONAME
	_ZN14CUniBaseHeaderD2Ev @ 15 NONAME
	_ZN15CUniSlideLoader10LoadObjectER23MUniSlideLoaderObserverP10CUniObject @ 16 NONAME
	_ZN15CUniSlideLoader10LoadSlideLER23MUniSlideLoaderObserveri @ 17 NONAME
	_ZN15CUniSlideLoader10ResetViewLEv @ 18 NONAME
	_ZN15CUniSlideLoader18UpdateControlIconLER16CMsgMediaControlP10CUniObject @ 19 NONAME
	_ZN15CUniSlideLoader4NewLER24MMsgAsyncControlObserverR13CUniDataModelR14CMsgEditorView15TUniControlMode @ 20 NONAME
	_ZN16CUniObjectsModel4NewLEi @ 21 NONAME
	_ZN18CUniAddressHandler12MakeDetailsLER6TDes16 @ 22 NONAME
	_ZN18CUniAddressHandler13AddRecipientLERi @ 23 NONAME
	_ZN18CUniAddressHandler16VerifyAddressesLERi @ 24 NONAME
	_ZN18CUniAddressHandler19CheckSingleAddressLERK7TDesC16 @ 25 NONAME
	_ZN18CUniAddressHandler19CopyAddressesToMtmLE23TMsvRecipientTypeValues @ 26 NONAME
	_ZN18CUniAddressHandler21AppendAddressesToMtmLE23TMsvRecipientTypeValues @ 27 NONAME
	_ZN18CUniAddressHandler21CopyAddressesFromMtmLE23TMsvRecipientTypeValuesi @ 28 NONAME
	_ZN18CUniAddressHandler23RemoveAddressesFromMtmLE23TMsvRecipientTypeValues @ 29 NONAME
	_ZN18CUniAddressHandler25RemoveDuplicateAddressesLER13CArrayPtrFlatI18CMsgAddressControlE @ 30 NONAME
	_ZN18CUniAddressHandler30ShowInvalidRecipientInfoNotesLEv @ 31 NONAME
	_ZN18CUniAddressHandler4NewLER8CBaseMtmR18CMsgAddressControlR7CCoeEnv @ 32 NONAME
	_ZN18CUniImageProcessor11ScaleImageLEP10CFbsBitmapR5RFileRK5TSizeRK6TDesC8i @ 33 NONAME
	_ZN18CUniImageProcessor11ScaleImageLEP10CFbsBitmapS1_i @ 34 NONAME
	_ZN18CUniImageProcessor11ScaleImageLER5RFileRP10CFbsBitmapS4_R5TSizei @ 35 NONAME
	_ZN18CUniImageProcessor13ProcessImageLER5RFileS1_R5TSizeRK6TDesC8ii @ 36 NONAME
	_ZN18CUniImageProcessor5ResetEv @ 37 NONAME
	_ZN18CUniImageProcessorC1EP26MUniImageProcessorCallback @ 38 NONAME
	_ZN18CUniImageProcessorC2EP26MUniImageProcessorCallback @ 39 NONAME
	_ZN21CUniObjectsViewDialog12ObjectsViewLENS_21TUniObjectsDialogTypeER16CUniObjectsModelP9CEikonEnvR24TUniObjectsDialogExitCmdR13CUniDataModeli @ 40 NONAME
	_ZTI14CUniBaseHeader @ 41 NONAME ; #<TI>#
	_ZTV14CUniBaseHeader @ 42 NONAME ; #<VT>#
	_ZN14CUniBaseHeader20HandleResourceChangeEi @ 43 NONAME
	_ZN15CUniSlideLoader14ReLoadControlLEP16CMsgMediaControlP10CUniObject @ 44 NONAME
	_ZN15CUniSlideLoader4NewLEP18MUniObjectObserverR24MMsgAsyncControlObserverR13CUniDataModelR14CMsgEditorView15TUniControlMode @ 45 NONAME

