EXPORTS
	_ZN11MsgBioUtils10ErrorNoteLERK7TDesC16 @ 1 NONAME
	_ZN11MsgBioUtils10ErrorNoteLEi @ 2 NONAME
	_ZN11MsgBioUtils10TextQueryLEiR6TDes16 @ 3 NONAME
	_ZN11MsgBioUtils14IncrementNameLER6TDes16 @ 4 NONAME
	_ZN11MsgBioUtils16InformationNoteLERK7TDesC16 @ 5 NONAME
	_ZN11MsgBioUtils16InformationNoteLEi @ 6 NONAME
	_ZN11MsgBioUtils17ConfirmationNoteLERK7TDesC16 @ 7 NONAME
	_ZN11MsgBioUtils17ConfirmationNoteLEi @ 8 NONAME
	_ZN11MsgBioUtils26ConfirmationQueryOkCancelLERK7TDesC16 @ 9 NONAME
	_ZN11MsgBioUtils26ConfirmationQueryOkCancelLEi @ 10 NONAME
	_ZN11MsgBioUtils7CheckIPERK7TDesC16 @ 11 NONAME
	_ZN11MsgBioUtils8CheckURLERK7TDesC16 @ 12 NONAME
	_ZN13CMsgNameValue4NewLEP7HBufC16S1_ @ 13 NONAME
	_ZN13CMsgNameValue4NewLERK7TDesC16S2_ @ 14 NONAME
	_ZN13CMsgNameValue5NewLCERK7TDesC16S2_ @ 15 NONAME
	_ZN13CMsgNameValueD0Ev @ 16 NONAME
	_ZN13CMsgNameValueD1Ev @ 17 NONAME
	_ZN13CMsgNameValueD2Ev @ 18 NONAME
	_ZN14CMsgBioControl12AddMenuItemLER12CEikMenuPaneiii @ 19 NONAME
	_ZN14CMsgBioControl12SetExtensionEP23MMsgBioControlExtension @ 20 NONAME
	_ZN14CMsgBioControl13LoadResourceLERK7TDesC16 @ 21 NONAME
	_ZN14CMsgBioControl13LoadResourceLERK7TDesC16S2_ @ 22 NONAME
	_ZN14CMsgBioControl13VirtualHeightEv @ 23 NONAME
	_ZN14CMsgBioControl17NotifyEditorViewLE26TMsgBioControlEventRequesti @ 24 NONAME
	_ZN14CMsgBioControl17VirtualVisibleTopEv @ 25 NONAME
	_ZN14CMsgBioControl18ConfirmationQueryLERK7TDesC16 @ 26 NONAME
	_ZN14CMsgBioControl18ConfirmationQueryLEi @ 27 NONAME
	_ZN14CMsgBioControl24LoadStandardBioResourceLEv @ 28 NONAME
	_ZN14CMsgBioControlC2ER22MMsgBioControlObserverP11CMsvSessionl11TMsgBioModeRK4TBufILi256EE @ 29 NONAME
	_ZN14CMsgBioControlD0Ev @ 30 NONAME
	_ZN14CMsgBioControlD1Ev @ 31 NONAME
	_ZN14CMsgBioControlD2Ev @ 32 NONAME
	_ZN16CMsgDetailWindow11SetControlLEP8CRichBio @ 33 NONAME
	_ZN16CMsgDetailWindow4HideEv @ 34 NONAME
	_ZN16CMsgDetailWindow4NewLEv @ 35 NONAME
	_ZN16CMsgDetailWindow4ShowEv @ 36 NONAME
	_ZN16CMsgDetailWindowD0Ev @ 37 NONAME
	_ZN16CMsgDetailWindowD1Ev @ 38 NONAME
	_ZN16CMsgDetailWindowD2Ev @ 39 NONAME
	_ZN18CMsgAsyncItemSaver14StartOperationEP18MMsgAsyncItemSaver @ 40 NONAME
	_ZN18CMsgAsyncItemSaver5PauseEi @ 41 NONAME
	_ZN18CMsgAsyncItemSaver8ContinueEv @ 42 NONAME
	_ZN18CMsgAsyncItemSaverC1Ev @ 43 NONAME
	_ZN18CMsgAsyncItemSaverC2Ev @ 44 NONAME
	_ZN18CMsgAsyncItemSaverD0Ev @ 45 NONAME
	_ZN18CMsgAsyncItemSaverD1Ev @ 46 NONAME
	_ZN18CMsgAsyncItemSaverD2Ev @ 47 NONAME
	_ZN18CMsgBioBodyControl10BioControlEv @ 48 NONAME
	_ZN18CMsgBioBodyControl10ClipboardLE17TMsgClipboardFunc @ 49 NONAME
	_ZN18CMsgBioBodyControl13VirtualHeightEv @ 50 NONAME
	_ZN18CMsgBioBodyControl14SetAndGetSizeLER5TSize @ 51 NONAME
	_ZN18CMsgBioBodyControl15CurrentLineRectEv @ 52 NONAME
	_ZN18CMsgBioBodyControl17HandleBioCommandLEi @ 53 NONAME
	_ZN18CMsgBioBodyControl17VirtualVisibleTopEv @ 54 NONAME
	_ZN18CMsgBioBodyControl18SetMenuCommandSetLER12CEikMenuPane @ 55 NONAME
	_ZN18CMsgBioBodyControl30HandleBaseControlEventRequestLE26TMsgBioControlEventRequesti @ 56 NONAME
	_ZN18CMsgBioBodyControl4NewLER22MMsgBioControlObserverRK4TUidl11TMsgBioModeR11CMsvSession @ 57 NONAME
	_ZN18CMsgBioBodyControl5EditLE12TMsgEditFunc @ 58 NONAME
	_ZN18CMsgBioBodyControlD0Ev @ 59 NONAME
	_ZN18CMsgBioBodyControlD1Ev @ 60 NONAME
	_ZN18CMsgBioBodyControlD2Ev @ 61 NONAME
	_ZN21CMsgBioControlFactory14CreateControlLER22MMsgBioControlObserverRK4TUid11TMsgBioModeRK4TBufILi256EE @ 62 NONAME
	_ZN21CMsgBioControlFactory14CreateControlLER22MMsgBioControlObserverRK4TUid11TMsgBioModelP11CMsvSession @ 63 NONAME
	_ZN21CMsgBioControlFactory4NewLEv @ 64 NONAME
	_ZN21CMsgBioControlFactoryD0Ev @ 65 NONAME
	_ZN21CMsgBioControlFactoryD1Ev @ 66 NONAME
	_ZN21CMsgBioControlFactoryD2Ev @ 67 NONAME
	_ZNK13CMsgNameValue4NameEv @ 68 NONAME
	_ZNK13CMsgNameValue5ValueEv @ 69 NONAME
	_ZNK14CMsgBioControl10MsvSessionEv @ 70 NONAME
	_ZNK14CMsgBioControl11IsFileBasedEv @ 71 NONAME
	_ZNK14CMsgBioControl16IsCursorLocationE18TMsgCursorLocation @ 72 NONAME
	_ZNK14CMsgBioControl22OptionMenuPermissionsLEv @ 73 NONAME
	_ZNK14CMsgBioControl24GetBioControlHelpContextER15TCoeHelpContext @ 74 NONAME
	_ZNK14CMsgBioControl8FileNameEv @ 75 NONAME
	_ZNK14CMsgBioControl8IsEditorEv @ 76 NONAME
	_ZNK16CMsgDetailWindow7ControlEv @ 77 NONAME
	_ZNK18CMsgBioBodyControl11HeaderTextLEv @ 78 NONAME
	_ZNK18CMsgBioBodyControl14EditPermissionEv @ 79 NONAME
	_ZNK18CMsgBioBodyControl16IsCursorLocationE18TMsgCursorLocation @ 80 NONAME
	_ZNK18CMsgBioBodyControl21IsFocusChangePossibleE18TMsgFocusDirection @ 81 NONAME
	_ZTI13CMsgNameValue @ 82 NONAME ; #<TI>#
	_ZTI14CMsgBioControl @ 83 NONAME ; #<TI>#
	_ZTI16CMsgDetailWindow @ 84 NONAME ; #<TI>#
	_ZTI18CMsgAsyncItemSaver @ 85 NONAME ; #<TI>#
	_ZTI18CMsgBioBodyControl @ 86 NONAME ; #<TI>#
	_ZTI21CMsgBioControlFactory @ 87 NONAME ; #<TI>#
	_ZTV13CMsgNameValue @ 88 NONAME ; #<VT>#
	_ZTV14CMsgBioControl @ 89 NONAME ; #<VT>#
	_ZTV16CMsgDetailWindow @ 90 NONAME ; #<VT>#
	_ZTV18CMsgAsyncItemSaver @ 91 NONAME ; #<VT>#
	_ZTV18CMsgBioBodyControl @ 92 NONAME ; #<VT>#
	_ZTV21CMsgBioControlFactory @ 93 NONAME ; #<VT>#
	_ZThn48_N14CMsgBioControl13VirtualHeightEv @ 94 NONAME ; #<thunk>#
	_ZThn48_N14CMsgBioControl17VirtualVisibleTopEv @ 95 NONAME ; #<thunk>#
	_ZThn48_NK14CMsgBioControl16IsCursorLocationE18TMsgCursorLocation @ 96 NONAME ; #<thunk>#
	_ZThn48_NK14CMsgBioControl22OptionMenuPermissionsLEv @ 97 NONAME ; #<thunk>#
	_ZThn88_N18CMsgBioBodyControl30HandleBaseControlEventRequestLE26TMsgBioControlEventRequesti @ 98 NONAME ; #<thunk>#

